
Discarded input sections

 .data          0x0000000000000000        0x0 arch/arm/cpu/armv8/start.o
 .bss           0x0000000000000000        0x0 arch/arm/cpu/armv8/start.o
 .text.usec2ticks
                0x0000000000000000       0x44 arch/arm/cpu/armv8/built-in.o
 .text.invalidate_dcache_range
                0x0000000000000000        0x4 arch/arm/cpu/armv8/built-in.o
 .text.arch_get_page_table
                0x0000000000000000       0x20 arch/arm/cpu/armv8/built-in.o
 .text.mmu_set_region_dcache_behaviour
                0x0000000000000000      0x140 arch/arm/cpu/armv8/built-in.o
 .text.hvc_call
                0x0000000000000000       0x44 arch/arm/cpu/armv8/built-in.o
 .text.smc_call
                0x0000000000000000       0x40 arch/arm/cpu/armv8/built-in.o
 .text.psci_system_reset
                0x0000000000000000       0x34 arch/arm/cpu/armv8/built-in.o
 .data          0x0000000000000000        0x0 arch/arm/cpu/armv8/built-in.o
 .bss           0x0000000000000000        0x0 arch/arm/cpu/armv8/built-in.o
 .text.setup_board_tags
                0x0000000000000000        0x4 arch/arm/lib/built-in.o
 .text.enable_caches
                0x0000000000000000        0xc arch/arm/lib/built-in.o
 .text.invalidate_dcache_range
                0x0000000000000000        0x4 arch/arm/lib/built-in.o
 .text.flush_dcache_range
                0x0000000000000000        0x4 arch/arm/lib/built-in.o
 .text.flush_dcache_all
                0x0000000000000000        0xc arch/arm/lib/built-in.o
 .data          0x0000000000000000        0x0 arch/arm/lib/built-in.o
 .__secure_end  0x0000000000000000        0x0 arch/arm/lib/built-in.o
 .__secure_start
                0x0000000000000000        0x0 arch/arm/lib/built-in.o
 .__end         0x0000000000000000        0x0 arch/arm/lib/built-in.o
 .bss           0x0000000000000000        0x0 arch/arm/lib/built-in.o
 .text          0x0000000000000000        0x0 board/armltd/vexpress64/built-in.o
 .data          0x0000000000000000        0x0 board/armltd/vexpress64/built-in.o
 .bss           0x0000000000000000        0x0 board/armltd/vexpress64/built-in.o
 .text          0x0000000000000000        0x0 cmd/built-in.o
 .text.invalidate_icache_all
                0x0000000000000000        0xc cmd/built-in.o
 .text.flush_dcache_all
                0x0000000000000000        0xc cmd/built-in.o
 .data          0x0000000000000000        0x0 cmd/built-in.o
 .bss           0x0000000000000000        0x0 cmd/built-in.o
 .text          0x0000000000000000        0x0 common/built-in.o
 .text.hash_finish_crc32
                0x0000000000000000       0x34 common/built-in.o
 .text.hash_update_crc32
                0x0000000000000000       0x34 common/built-in.o
 .text.hash_init_crc32
                0x0000000000000000       0x2c common/built-in.o
 .text.hash_lookup_algo
                0x0000000000000000       0x3c common/built-in.o
 .text.hash_progressive_lookup_algo
                0x0000000000000000       0x44 common/built-in.o
 .text.hash_parse_string
                0x0000000000000000       0x78 common/built-in.o
 .text.hash_block
                0x0000000000000000       0x74 common/built-in.o
 .text.unset_local_var
                0x0000000000000000       0xb8 common/built-in.o
 .text.coloured_LED_init
                0x0000000000000000        0x4 common/built-in.o
 .text.red_led_on
                0x0000000000000000        0x4 common/built-in.o
 .text.red_led_off
                0x0000000000000000        0x4 common/built-in.o
 .text.green_led_on
                0x0000000000000000        0x4 common/built-in.o
 .text.green_led_off
                0x0000000000000000        0x4 common/built-in.o
 .text.yellow_led_on
                0x0000000000000000        0x4 common/built-in.o
 .text.yellow_led_off
                0x0000000000000000        0x4 common/built-in.o
 .text.blue_led_on
                0x0000000000000000        0x4 common/built-in.o
 .text.blue_led_off
                0x0000000000000000        0x4 common/built-in.o
 .text.dram_init_banksize
                0x0000000000000000       0x30 common/built-in.o
 .text.arch_reserve_stacks
                0x0000000000000000        0x8 common/built-in.o
 .text.fixup_cpu
                0x0000000000000000        0x8 common/built-in.o
 .text.env_flags_parse_varaccess_from_binflags
                0x0000000000000000       0x4c common/built-in.o
 .text.of_bus_default_map
                0x0000000000000000       0xa0 common/built-in.o
 .text.fdt_read_prop
                0x0000000000000000       0x50 common/built-in.o
 .text.of_bus_default_count_cells
                0x0000000000000000       0x74 common/built-in.o
 .text.of_bus_default_translate
                0x0000000000000000       0xb0 common/built-in.o
 .text.fdt_getprop_u32_default_node
                0x0000000000000000       0x54 common/built-in.o
 .text.fdt_getprop_u32_default
                0x0000000000000000       0x54 common/built-in.o
 .text.do_fixup_by_path_u32
                0x0000000000000000       0x28 common/built-in.o
 .text.do_fixup_by_prop
                0x0000000000000000       0xc8 common/built-in.o
 .text.do_fixup_by_prop_u32
                0x0000000000000000       0x28 common/built-in.o
 .text.do_fixup_by_compat
                0x0000000000000000       0xa8 common/built-in.o
 .text.do_fixup_by_compat_u32
                0x0000000000000000       0x28 common/built-in.o
 .text.fdt_increase_size
                0x0000000000000000       0x14 common/built-in.o
 .text.fdt_del_node_and_alias
                0x0000000000000000       0x5c common/built-in.o
 .text.fdt_translate_address
                0x0000000000000000      0x288 common/built-in.o
 .text.fdt_node_offset_by_compat_reg
                0x0000000000000000       0xa0 common/built-in.o
 .text.fdt_alloc_phandle
                0x0000000000000000       0x6c common/built-in.o
 .text.fdt_set_phandle
                0x0000000000000000       0x6c common/built-in.o
 .text.fdt_create_phandle
                0x0000000000000000       0x78 common/built-in.o
 .text.fdt_set_node_status
                0x0000000000000000       0xd8 common/built-in.o
 .text.fdt_set_status_by_alias
                0x0000000000000000       0x38 common/built-in.o
 .text.fdt_verify_alias_address
                0x0000000000000000       0xdc common/built-in.o
 .text.fdt_get_base_address
                0x0000000000000000       0x68 common/built-in.o
 .text.fdt_read_range
                0x0000000000000000      0x15c common/built-in.o
 .text.fdt_setup_simplefb_node
                0x0000000000000000      0x228 common/built-in.o
 .text.fdt_fixup_display
                0x0000000000000000       0xe0 common/built-in.o
 .text.legacy_miiphy_read
                0x0000000000000000       0x34 common/built-in.o
 .text.legacy_miiphy_write
                0x0000000000000000       0x18 common/built-in.o
 .text.mdio_alloc
                0x0000000000000000       0x40 common/built-in.o
 .text.miiphy_register
                0x0000000000000000      0x148 common/built-in.o
 .text.mdio_free
                0x0000000000000000        0x4 common/built-in.o
 .text.mdio_register
                0x0000000000000000       0x90 common/built-in.o
 .text.mdio_unregister
                0x0000000000000000       0x38 common/built-in.o
 .text.mdio_list_devices
                0x0000000000000000       0xc8 common/built-in.o
 .text.mdio_get_current_dev
                0x0000000000000000        0xc common/built-in.o
 .text.mdio_phydev_for_ethname
                0x0000000000000000       0x9c common/built-in.o
 .text.miiphy_reset
                0x0000000000000000       0xb0 common/built-in.o
 .text.splash_screen_prepare
                0x0000000000000000        0x8 common/built-in.o
 .text.menu_default_choice
                0x0000000000000000       0x1c common/built-in.o
 .text.serial_printf
                0x0000000000000000       0xd4 common/built-in.o
 .text.fputc    0x0000000000000000       0x24 common/built-in.o
 .text.fputs    0x0000000000000000       0x20 common/built-in.o
 .text.fprintf  0x0000000000000000       0xd8 common/built-in.o
 .text.confirm_yesno
                0x0000000000000000       0xd8 common/built-in.o
 .text.disable_ctrlc
                0x0000000000000000       0x14 common/built-in.o
 .text.valloc   0x0000000000000000        0xc common/built-in.o
 .text.pvalloc  0x0000000000000000       0x10 common/built-in.o
 .text.cfree    0x0000000000000000        0x4 common/built-in.o
 .text.malloc_usable_size
                0x0000000000000000       0x40 common/built-in.o
 .text.mallopt  0x0000000000000000       0x70 common/built-in.o
 .text.memalign_simple
                0x0000000000000000       0x4c common/built-in.o
 .text.genimg_get_short_name
                0x0000000000000000       0x28 common/built-in.o
 .text.genimg_get_type_short_name
                0x0000000000000000       0x10 common/built-in.o
 .text.genimg_get_comp_short_name
                0x0000000000000000       0x10 common/built-in.o
 .text.genimg_get_os_short_name
                0x0000000000000000       0x10 common/built-in.o
 .text.genimg_get_arch_short_name
                0x0000000000000000       0x10 common/built-in.o
 .text.get_table_entry_id
                0x0000000000000000       0x54 common/built-in.o
 .text.genimg_get_os_id
                0x0000000000000000       0x18 common/built-in.o
 .text.genimg_get_arch_id
                0x0000000000000000       0x18 common/built-in.o
 .text.genimg_get_type_id
                0x0000000000000000       0x18 common/built-in.o
 .text.genimg_get_comp_id
                0x0000000000000000       0x18 common/built-in.o
 .text.arch_fixup_fdt
                0x0000000000000000        0x8 common/built-in.o
 .text.get_ram_size
                0x0000000000000000      0x108 common/built-in.o
 .text.stdio_init
                0x0000000000000000       0x1c common/built-in.o
 .text.cli_simple_parse_line
                0x0000000000000000       0xa8 common/built-in.o
 .text.cli_simple_run_command
                0x0000000000000000      0x144 common/built-in.o
 .text.cli_simple_loop
                0x0000000000000000       0x94 common/built-in.o
 .text.cli_simple_run_command_list
                0x0000000000000000       0x78 common/built-in.o
 .text.run_command_repeatable
                0x0000000000000000       0x20 common/built-in.o
 .text.hex1_bin
                0x0000000000000000       0x48 common/built-in.o
 .text.hex2_bin
                0x0000000000000000       0x44 common/built-in.o
 .text.srec_decode
                0x0000000000000000      0x250 common/built-in.o
 .rodata.fdt_set_node_status
                0x0000000000000000        0x4 common/built-in.o
 .rodata.__FUNCTION__.6934
                0x0000000000000000       0x18 common/built-in.o
 .rodata.__FUNCTION__.7256
                0x0000000000000000       0x10 common/built-in.o
 .rodata.mallopt
                0x0000000000000000        0x4 common/built-in.o
 .rodata.srec_decode
                0x0000000000000000        0xc common/built-in.o
 .data          0x0000000000000000        0x0 common/built-in.o
 .data.hash_algo
                0x0000000000000000       0x38 common/built-in.o
 .data.of_busses
                0x0000000000000000       0x30 common/built-in.o
 .data.mmap_threshold
                0x0000000000000000        0x8 common/built-in.o
 .bss           0x0000000000000000        0x0 common/built-in.o
 .bss.n_mmaps_max
                0x0000000000000000        0x4 common/built-in.o
 .bss.save_addr
                0x0000000000000000        0x8 common/built-in.o
 .bss.save_size
                0x0000000000000000        0x8 common/built-in.o
 .bss.lastcommand.5185
                0x0000000000000000      0x208 common/built-in.o
 .text          0x0000000000000000        0x0 disk/built-in.o
 .text.get_dev_hwpart
                0x0000000000000000        0x8 disk/built-in.o
 .text.part_get_info
                0x0000000000000000        0x8 disk/built-in.o
 .data          0x0000000000000000        0x0 disk/built-in.o
 .bss           0x0000000000000000        0x0 disk/built-in.o
 .text          0x0000000000000000        0x0 drivers/built-in.o
 .text._device_find_global_by_of_offset
                0x0000000000000000       0x64 drivers/built-in.o
 .text.device_bind_with_driver_data
                0x0000000000000000       0x14 drivers/built-in.o
 .text.dev_get_parent_platdata
                0x0000000000000000       0x34 drivers/built-in.o
 .text.dev_get_uclass_platdata
                0x0000000000000000       0x34 drivers/built-in.o
 .text.dev_get_parent_priv
                0x0000000000000000       0x34 drivers/built-in.o
 .text.device_get_child
                0x0000000000000000       0x6c drivers/built-in.o
 .text.device_find_child_by_seq
                0x0000000000000000       0x60 drivers/built-in.o
 .text.device_get_child_by_seq
                0x0000000000000000       0x80 drivers/built-in.o
 .text.device_find_child_by_of_offset
                0x0000000000000000       0x40 drivers/built-in.o
 .text.device_get_child_by_of_offset
                0x0000000000000000       0x40 drivers/built-in.o
 .text.device_get_global_by_of_offset
                0x0000000000000000       0x48 drivers/built-in.o
 .text.device_find_first_child
                0x0000000000000000       0x28 drivers/built-in.o
 .text.device_find_next_child
                0x0000000000000000       0x30 drivers/built-in.o
 .text.dev_get_parent
                0x0000000000000000        0x8 drivers/built-in.o
 .text.dev_get_driver_data
                0x0000000000000000        0x8 drivers/built-in.o
 .text.dev_get_driver_ops
                0x0000000000000000       0x18 drivers/built-in.o
 .text.device_get_uclass_id
                0x0000000000000000       0x10 drivers/built-in.o
 .text.dev_get_uclass_name
                0x0000000000000000       0x1c drivers/built-in.o
 .text.dev_get_addr_index
                0x0000000000000000        0x8 drivers/built-in.o
 .text.dev_get_addr_name
                0x0000000000000000        0x8 drivers/built-in.o
 .text.dev_get_addr
                0x0000000000000000        0x8 drivers/built-in.o
 .text.dev_get_addr_ptr
                0x0000000000000000        0x8 drivers/built-in.o
 .text.device_has_children
                0x0000000000000000       0x14 drivers/built-in.o
 .text.device_has_active_children
                0x0000000000000000       0x38 drivers/built-in.o
 .text.device_is_last_sibling
                0x0000000000000000       0x24 drivers/built-in.o
 .text.device_set_name_alloced
                0x0000000000000000       0x10 drivers/built-in.o
 .text.device_set_name
                0x0000000000000000       0x44 drivers/built-in.o
 .text.of_device_is_compatible
                0x0000000000000000       0x2c drivers/built-in.o
 .text.of_machine_is_compatible
                0x0000000000000000       0x2c drivers/built-in.o
 .text.device_bind_driver_to_node
                0x0000000000000000       0x64 drivers/built-in.o
 .text.device_bind_driver
                0x0000000000000000        0xc drivers/built-in.o
 .text.dm_get_translation_offset
                0x0000000000000000       0x1c drivers/built-in.o
 .text.dm_set_translation_offset
                0x0000000000000000       0x28 drivers/built-in.o
 .text.dm_uninit
                0x0000000000000000       0x24 drivers/built-in.o
 .text.uclass_destroy
                0x0000000000000000       0x9c drivers/built-in.o
 .text.uclass_find_next_device
                0x0000000000000000       0x2c drivers/built-in.o
 .text.uclass_find_device_by_name
                0x0000000000000000       0xa0 drivers/built-in.o
 .text.uclass_find_device_by_of_offset
                0x0000000000000000       0x74 drivers/built-in.o
 .text.uclass_get_device_by_name
                0x0000000000000000       0x38 drivers/built-in.o
 .text.uclass_get_device_by_of_offset
                0x0000000000000000       0x38 drivers/built-in.o
 .text.uclass_first_device_err
                0x0000000000000000       0x34 drivers/built-in.o
 .text.uclass_next_device
                0x0000000000000000       0x48 drivers/built-in.o
 .text.dm_dbg   0x0000000000000000       0x88 drivers/built-in.o
 .text.list_count_items
                0x0000000000000000       0x24 drivers/built-in.o
 .text.device_unbind
                0x0000000000000000      0x134 drivers/built-in.o
 .text.blk_dselect_hwpart
                0x0000000000000000       0x54 drivers/built-in.o
 .text.blk_get_devnum_by_typename
                0x0000000000000000       0xa4 drivers/built-in.o
 .text.blk_read_devnum
                0x0000000000000000       0x94 drivers/built-in.o
 .text.blk_write_devnum
                0x0000000000000000       0x70 drivers/built-in.o
 .text.blk_select_hwpart_devnum
                0x0000000000000000       0x5c drivers/built-in.o
 .text._input_send_keycodes
                0x0000000000000000      0x404 drivers/built-in.o
 .text.input_tstc
                0x0000000000000000       0x50 drivers/built-in.o
 .text.input_getc
                0x0000000000000000       0x60 drivers/built-in.o
 .text.input_send_keycodes
                0x0000000000000000        0x8 drivers/built-in.o
 .text.input_add_keycode
                0x0000000000000000       0x88 drivers/built-in.o
 .text.input_add_table
                0x0000000000000000       0x3c drivers/built-in.o
 .text.input_set_delays
                0x0000000000000000        0xc drivers/built-in.o
 .text.input_allow_repeats
                0x0000000000000000        0x8 drivers/built-in.o
 .text.input_leds_changed
                0x0000000000000000       0x18 drivers/built-in.o
 .text.input_add_tables
                0x0000000000000000       0x80 drivers/built-in.o
 .text.input_init
                0x0000000000000000       0x34 drivers/built-in.o
 .text.input_stdio_register
                0x0000000000000000       0x58 drivers/built-in.o
 .rodata.__func__.7230
                0x0000000000000000       0x18 drivers/built-in.o
 .rodata.__func__.7226
                0x0000000000000000       0x18 drivers/built-in.o
 .rodata.__func__.7242
                0x0000000000000000       0x18 drivers/built-in.o
 .rodata.kbd_to_ansi364
                0x0000000000000000       0x40 drivers/built-in.o
 .rodata.kbd_plain_xlate
                0x0000000000000000       0x68 drivers/built-in.o
 .rodata.CSWTCH.21
                0x0000000000000000       0x10 drivers/built-in.o
 .rodata.kbd_plain_xlate_german
                0x0000000000000000       0x88 drivers/built-in.o
 .data          0x0000000000000000        0x0 drivers/built-in.o
 .data.kbd_ctrl_xlate
                0x0000000000000000       0x68 drivers/built-in.o
 .data.kbd_right_alt_xlate_german
                0x0000000000000000       0x58 drivers/built-in.o
 .data.kbd_shift_xlate_german
                0x0000000000000000       0x88 drivers/built-in.o
 .data.kbd_entry
                0x0000000000000000       0xe0 drivers/built-in.o
 .data.kbd_shift_xlate
                0x0000000000000000       0x68 drivers/built-in.o
 .bss           0x0000000000000000        0x0 drivers/built-in.o
 .text          0x0000000000000000        0x0 drivers/mtd/built-in.o
 .text.flash_read_user_serial
                0x0000000000000000       0x80 drivers/mtd/built-in.o
 .text.flash_read_factory_serial
                0x0000000000000000       0x80 drivers/mtd/built-in.o
 .data          0x0000000000000000        0x0 drivers/mtd/built-in.o
 .bss           0x0000000000000000        0x0 drivers/mtd/built-in.o
 .text          0x0000000000000000        0x0 drivers/net/built-in.o
 .data          0x0000000000000000        0x0 drivers/net/built-in.o
 .bss           0x0000000000000000        0x0 drivers/net/built-in.o
 .text          0x0000000000000000        0x0 drivers/serial/built-in.o
 .data          0x0000000000000000        0x0 drivers/serial/built-in.o
 .bss           0x0000000000000000        0x0 drivers/serial/built-in.o
 .text          0x0000000000000000        0x0 drivers/spi/built-in.o
 .text.spi_set_wordlen
                0x0000000000000000       0x38 drivers/spi/built-in.o
 .text.spi_do_alloc_slave
                0x0000000000000000       0x70 drivers/spi/built-in.o
 .rodata.str1.1
                0x0000000000000000       0x19 drivers/spi/built-in.o
 .data          0x0000000000000000        0x0 drivers/spi/built-in.o
 .bss           0x0000000000000000        0x0 drivers/spi/built-in.o
 .comment       0x0000000000000000       0x37 drivers/spi/built-in.o
 .note.GNU-stack
                0x0000000000000000        0x0 drivers/spi/built-in.o
 .debug_aranges
                0x0000000000000000       0x40 drivers/spi/built-in.o
 .debug_info    0x0000000000000000      0x544 drivers/spi/built-in.o
 .debug_abbrev  0x0000000000000000      0x1a5 drivers/spi/built-in.o
 .debug_line    0x0000000000000000      0x10c drivers/spi/built-in.o
 .debug_frame   0x0000000000000000       0x78 drivers/spi/built-in.o
 .debug_str     0x0000000000000000      0x478 drivers/spi/built-in.o
 .debug_loc     0x0000000000000000      0x260 drivers/spi/built-in.o
 .debug_ranges  0x0000000000000000       0x30 drivers/spi/built-in.o
 .text          0x0000000000000000        0x0 fs/built-in.o
 .text.fs_uuid  0x0000000000000000       0x30 fs/built-in.o
 .text.fs_write
                0x0000000000000000       0x8c fs/built-in.o
 .text.do_save  0x0000000000000000      0x14c fs/built-in.o
 .text.do_fs_uuid
                0x0000000000000000       0xa4 fs/built-in.o
 .text.do_fs_type
                0x0000000000000000       0x8c fs/built-in.o
 .text.fat_register_device
                0x0000000000000000       0x80 fs/built-in.o
 .text.file_fat_read
                0x0000000000000000       0x30 fs/built-in.o
 .text.file_getfsname
                0x0000000000000000       0x1c fs/built-in.o
 .text.file_cd  0x0000000000000000      0x210 fs/built-in.o
 .text.file_detectfs
                0x0000000000000000       0x48 fs/built-in.o
 .text.file_ls  0x0000000000000000       0xa0 fs/built-in.o
 .text.file_read
                0x0000000000000000       0xb8 fs/built-in.o
 .rodata.filesystems
                0x0000000000000000       0x28 fs/built-in.o
 .data          0x0000000000000000        0x0 fs/built-in.o
 .data.file_cwd
                0x0000000000000000      0x200 fs/built-in.o
 .data.current_filesystem
                0x0000000000000000        0x4 fs/built-in.o
 .bss           0x0000000000000000        0x0 fs/built-in.o
 .text          0x0000000000000000        0x0 lib/built-in.o
 .text.invalidate_icache_all
                0x0000000000000000        0x4 lib/built-in.o
 .text.inflateInit_
                0x0000000000000000       0x10 lib/built-in.o
 .text.crc7     0x0000000000000000       0x34 lib/built-in.o
 .text.crc8     0x0000000000000000       0x48 lib/built-in.o
 .text.lmb_dump_all
                0x0000000000000000        0x4 lib/built-in.o
 .text.lmb_is_reserved
                0x0000000000000000       0x48 lib/built-in.o
 .text.arch_lmb_reserve
                0x0000000000000000        0x4 lib/built-in.o
 .text.ldiv     0x0000000000000000       0x2c lib/built-in.o
 .text.strcmp_compar
                0x0000000000000000        0xc lib/built-in.o
 .text.rc4_encode
                0x0000000000000000       0xe4 lib/built-in.o
 .text.strmhz   0x0000000000000000       0x6c lib/built-in.o
 .text.fdt_first_subnode
                0x0000000000000000       0x34 lib/built-in.o
 .text.fdt_next_subnode
                0x0000000000000000       0x5c lib/built-in.o
 .text.fdt_get_phandle
                0x0000000000000000       0x78 lib/built-in.o
 .text.fdt_get_alias
                0x0000000000000000       0x34 lib/built-in.o
 .text.fdt_get_path
                0x0000000000000000      0x158 lib/built-in.o
 .text.fdt_parent_offset
                0x0000000000000000       0x44 lib/built-in.o
 .text.fdt_node_offset_by_prop_value
                0x0000000000000000       0xb0 lib/built-in.o
 .text.fdt_node_offset_by_phandle
                0x0000000000000000       0x80 lib/built-in.o
 .text.fdt_stringlist_contains
                0x0000000000000000       0x98 lib/built-in.o
 .text.fdt_count_strings
                0x0000000000000000       0x70 lib/built-in.o
 .text.fdt_find_string
                0x0000000000000000       0xa8 lib/built-in.o
 .text.fdt_get_string_index
                0x0000000000000000       0x7c lib/built-in.o
 .text.fdt_get_string
                0x0000000000000000        0xc lib/built-in.o
 .text.fdt_node_check_compatible
                0x0000000000000000       0x4c lib/built-in.o
 .text.fdt_node_offset_by_compatible
                0x0000000000000000       0x78 lib/built-in.o
 .text.fdt_set_name
                0x0000000000000000       0xa8 lib/built-in.o
 .text.fdt_appendprop
                0x0000000000000000       0xe8 lib/built-in.o
 .text.fdt_pack
                0x0000000000000000       0x6c lib/built-in.o
 .text.fdt_remove_unused_strings
                0x0000000000000000       0xcc lib/built-in.o
 .text._fdt_sw_check_header
                0x0000000000000000       0x20 lib/built-in.o
 .text._fdt_grab_space
                0x0000000000000000       0x60 lib/built-in.o
 .text.fdt_create
                0x0000000000000000       0x74 lib/built-in.o
 .text.fdt_resize
                0x0000000000000000       0xdc lib/built-in.o
 .text.fdt_add_reservemap_entry
                0x0000000000000000       0x8c lib/built-in.o
 .text.fdt_finish_reservemap
                0x0000000000000000        0xc lib/built-in.o
 .text.fdt_begin_node
                0x0000000000000000       0x90 lib/built-in.o
 .text.fdt_end_node
                0x0000000000000000       0x4c lib/built-in.o
 .text.fdt_property_placeholder
                0x0000000000000000      0x11c lib/built-in.o
 .text.fdt_property
                0x0000000000000000       0x50 lib/built-in.o
 .text.fdt_finish
                0x0000000000000000      0x110 lib/built-in.o
 .text.fdt_setprop_inplace
                0x0000000000000000       0x58 lib/built-in.o
 .text.fdt_nop_property
                0x0000000000000000       0x48 lib/built-in.o
 .text.fdt_nop_node
                0x0000000000000000       0x64 lib/built-in.o
 .text.fdt_find_regions
                0x0000000000000000      0x388 lib/built-in.o
 .text.fdt_create_empty_tree
                0x0000000000000000       0x78 lib/built-in.o
 .text.fdt_add_region
                0x0000000000000000       0x88 lib/built-in.o
 .text.fdt_add_alias_regions
                0x0000000000000000      0x1a4 lib/built-in.o
 .text.fdt_next_region
                0x0000000000000000      0x514 lib/built-in.o
 .text.fdt_first_region
                0x0000000000000000       0x38 lib/built-in.o
 .text.hmatch_r
                0x0000000000000000       0xbc lib/built-in.o
 .text.print_freq
                0x0000000000000000      0x154 lib/built-in.o
 .text.crc32_wd_buf
                0x0000000000000000       0x44 lib/built-in.o
 .text.copy_from_user
                0x0000000000000000       0x18 lib/built-in.o
 .text.kmalloc  0x0000000000000000       0x44 lib/built-in.o
 .text.get_mem  0x0000000000000000       0x2c lib/built-in.o
 .text.kmem_cache_alloc
                0x0000000000000000        0xc lib/built-in.o
 .text.membuff_purge
                0x0000000000000000       0x10 lib/built-in.o
 .text.membuff_putraw
                0x0000000000000000       0xac lib/built-in.o
 .text.membuff_putbyte
                0x0000000000000000       0x48 lib/built-in.o
 .text.membuff_getraw
                0x0000000000000000       0x94 lib/built-in.o
 .text.membuff_getbyte
                0x0000000000000000       0x3c lib/built-in.o
 .text.membuff_peekbyte
                0x0000000000000000       0x3c lib/built-in.o
 .text.membuff_get
                0x0000000000000000       0x9c lib/built-in.o
 .text.membuff_put
                0x0000000000000000       0x8c lib/built-in.o
 .text.membuff_isempty
                0x0000000000000000       0x14 lib/built-in.o
 .text.membuff_avail
                0x0000000000000000       0x5c lib/built-in.o
 .text.membuff_size
                0x0000000000000000       0x10 lib/built-in.o
 .text.membuff_makecontig
                0x0000000000000000       0xa4 lib/built-in.o
 .text.membuff_free
                0x0000000000000000       0x40 lib/built-in.o
 .text.membuff_readline
                0x0000000000000000       0xb0 lib/built-in.o
 .text.membuff_extend_by
                0x0000000000000000       0xe8 lib/built-in.o
 .text.membuff_init
                0x0000000000000000       0x18 lib/built-in.o
 .text.membuff_new
                0x0000000000000000       0x4c lib/built-in.o
 .text.membuff_uninit
                0x0000000000000000       0x14 lib/built-in.o
 .text.membuff_dispose
                0x0000000000000000       0x30 lib/built-in.o
 .text.strncasecmp
                0x0000000000000000       0x90 lib/built-in.o
 .text.strcasecmp
                0x0000000000000000        0x8 lib/built-in.o
 .text.strspn   0x0000000000000000       0x38 lib/built-in.o
 .text.strpbrk  0x0000000000000000       0x34 lib/built-in.o
 .text.strtok   0x0000000000000000       0x88 lib/built-in.o
 .text.strsep   0x0000000000000000       0x48 lib/built-in.o
 .text.strswab  0x0000000000000000       0x40 lib/built-in.o
 .text.bcopy    0x0000000000000000       0x28 lib/built-in.o
 .text.memscan  0x0000000000000000       0x24 lib/built-in.o
 .text.memchr_inv
                0x0000000000000000      0x108 lib/built-in.o
 .text.uuid_bin_to_str
                0x0000000000000000       0xd8 lib/built-in.o
 .text.vsnprintf
                0x0000000000000000       0x50 lib/built-in.o
 .text.scnprintf
                0x0000000000000000       0x80 lib/built-in.o
 .text.__assert_fail
                0x0000000000000000       0x18 lib/built-in.o
 .text.print_grouped_ull
                0x0000000000000000       0x9c lib/built-in.o
 .text.str2off  0x0000000000000000       0x4c lib/built-in.o
 .text.str2long
                0x0000000000000000       0x4c lib/built-in.o
 .rodata        0x0000000000000000       0x20 lib/built-in.o
 .rodata.z_errmsg
                0x0000000000000000       0x50 lib/built-in.o
 .rodata.crc7_syndrome_table
                0x0000000000000000      0x100 lib/built-in.o
 .rodata.fdt_find_regions
                0x0000000000000000       0x14 lib/built-in.o
 .rodata.fdt_next_region
                0x0000000000000000       0x14 lib/built-in.o
 .rodata.names.5234
                0x0000000000000000        0x8 lib/built-in.o
 .data          0x0000000000000000        0x0 lib/built-in.o
 .data.cur      0x0000000000000000        0x8 lib/built-in.o
 .data.current  0x0000000000000000        0x8 lib/built-in.o
 .bss           0x0000000000000000        0x0 lib/built-in.o
 .bss.___strtok
                0x0000000000000000        0x8 lib/built-in.o
 .text          0x0000000000000000        0x0 net/built-in.o
 .text.add_ip_checksums
                0x0000000000000000       0x40 net/built-in.o
 .text.eth_unregister
                0x0000000000000000       0xa0 net/built-in.o
 .text.eth_is_active
                0x0000000000000000       0x1c net/built-in.o
 .text.net_get_udp_handler
                0x0000000000000000        0xc net/built-in.o
 .text.net_set_arp_handler
                0x0000000000000000       0x18 net/built-in.o
 .text.vlan_to_string
                0x0000000000000000       0x44 net/built-in.o
 .text.getenv_vlan
                0x0000000000000000       0x14 net/built-in.o
 .data          0x0000000000000000        0x0 net/built-in.o
 .data.tftp_timeout_ms
                0x0000000000000000        0x8 net/built-in.o
 .bss           0x0000000000000000        0x0 net/built-in.o
 .bss.net_busy_flag
                0x0000000000000000        0x4 net/built-in.o
 .text          0x0000000000000000        0x0 test/dm/built-in.o
 .data          0x0000000000000000        0x0 test/dm/built-in.o
 .bss           0x0000000000000000        0x0 test/dm/built-in.o

Memory Configuration

Name             Origin             Length             Attributes
*default*        0x0000000000000000 0xffffffffffffffff

Linker script and memory map

Address of section .text set to 0x88000000
                0x0000000000000000                . = 0x0
                0x0000000000000000                . = ALIGN (0x8)

.text           0x0000000088000000    0x2a0bc
 *(.__image_copy_start)
 .__image_copy_start
                0x0000000088000000        0x0 arch/arm/lib/built-in.o
                0x0000000088000000                __image_copy_start
 arch/arm/cpu/armv8/start.o(.text*)
 .text          0x0000000088000000      0x110 arch/arm/cpu/armv8/start.o
                0x0000000088000000                _start
                0x0000000088000008                _TEXT_BASE
                0x0000000088000010                _end_ofs
                0x0000000088000018                _bss_start_ofs
                0x0000000088000020                _bss_end_ofs
                0x0000000088000090                apply_core_errata
                0x00000000880000b4                lowlevel_init
                0x00000000880000c0                smp_kick_all_cpus
                0x00000000880000cc                c_runtime_cpu_setup
 *(.text*)
 *fill*         0x0000000088000110      0x6f0 
 .text          0x0000000088000800     0x13c8 arch/arm/cpu/armv8/built-in.o
                0x0000000088000800                vectors
                0x0000000088001800                __asm_dcache_level
                0x0000000088001864                __asm_dcache_all
                0x00000000880018c4                __asm_flush_dcache_all
                0x00000000880018cc                __asm_invalidate_dcache_all
                0x00000000880018d4                __asm_flush_dcache_range
                0x0000000088001908                __asm_invalidate_icache_all
                0x0000000088001914                __asm_flush_l3_cache
                0x000000008800191c                __asm_switch_ttbr
                0x00000000880019fc                __asm_invalidate_tlb_all
                0x0000000088001a48                armv8_switch_to_el2
                0x0000000088001acc                armv8_switch_to_el1
 .text.cleanup_before_linux
                0x0000000088001bc8       0x28 arch/arm/cpu/armv8/built-in.o
                0x0000000088001bc8                cleanup_before_linux
 .text.get_tbclk
                0x0000000088001bf0        0x8 arch/arm/cpu/armv8/built-in.o
                0x0000000088001bf0                get_tbclk
 .text.timer_read_counter
                0x0000000088001bf8        0xc arch/arm/cpu/armv8/built-in.o
                0x0000000088001bf8                timer_read_counter
 .text.count_required_pts
                0x0000000088001c04       0xfc arch/arm/cpu/armv8/built-in.o
 .text.create_table
                0x0000000088001d00       0x70 arch/arm/cpu/armv8/built-in.o
 .text.get_tcr.constprop.2
                0x0000000088001d70       0xf4 arch/arm/cpu/armv8/built-in.o
 .text.find_pte
                0x0000000088001e64       0xa0 arch/arm/cpu/armv8/built-in.o
 .text.setup_pgtables
                0x0000000088001f04      0x118 arch/arm/cpu/armv8/built-in.o
 .text.get_page_table_size
                0x000000008800201c       0x48 arch/arm/cpu/armv8/built-in.o
                0x000000008800201c                get_page_table_size
 .text.mmu_setup
                0x0000000088002064      0x134 arch/arm/cpu/armv8/built-in.o
                0x0000000088002064                mmu_setup
 .text.invalidate_dcache_all
                0x0000000088002198        0x4 arch/arm/cpu/armv8/built-in.o
                0x0000000088002198                invalidate_dcache_all
 .text.flush_dcache_all
                0x000000008800219c       0x14 arch/arm/cpu/armv8/built-in.o
                0x000000008800219c                flush_dcache_all
 .text.flush_dcache_range
                0x00000000880021b0        0x4 arch/arm/cpu/armv8/built-in.o
                0x00000000880021b0                flush_dcache_range
 .text.dcache_enable
                0x00000000880021b4       0xac arch/arm/cpu/armv8/built-in.o
                0x00000000880021b4                dcache_enable
 .text.dcache_disable
                0x0000000088002260       0x88 arch/arm/cpu/armv8/built-in.o
                0x0000000088002260                dcache_disable
 .text.dcache_status
                0x00000000880022e8       0x34 arch/arm/cpu/armv8/built-in.o
                0x00000000880022e8                dcache_status
 .text.icache_enable
                0x000000008800231c       0x74 arch/arm/cpu/armv8/built-in.o
                0x000000008800231c                icache_enable
 .text.icache_disable
                0x0000000088002390       0x64 arch/arm/cpu/armv8/built-in.o
                0x0000000088002390                icache_disable
 .text.icache_status
                0x00000000880023f4       0x34 arch/arm/cpu/armv8/built-in.o
                0x00000000880023f4                icache_status
 .text.invalidate_icache_all
                0x0000000088002428        0x4 arch/arm/cpu/armv8/built-in.o
                0x0000000088002428                invalidate_icache_all
 .text.enable_caches
                0x000000008800242c       0x14 arch/arm/cpu/armv8/built-in.o
                0x000000008800242c                enable_caches
 .text          0x0000000088002440      0x1bc arch/arm/lib/built-in.o
                0x0000000088002440                _main
                0x00000000880024d0                relocate_code
                0x00000000880025a8                ccn504_add_masters_to_dvm
                0x00000000880025c4                ccn504_set_qos
                0x00000000880025d8                ccn504_set_aux
                0x00000000880025ec                gic_init_secure
                0x00000000880025f0                gic_init_secure_percpu
                0x00000000880025f4                gic_kick_secondary_cpus
                0x00000000880025f8                gic_wait_for_interrupt
 .text.arch_fixup_fdt
                0x00000000880025fc       0x34 arch/arm/lib/built-in.o
                0x00000000880025fc                arch_fixup_fdt
 .text.boot_prep_linux
                0x0000000088002630       0x58 arch/arm/lib/built-in.o
 .text.arch_lmb_reserve
                0x0000000088002688       0x24 arch/arm/lib/built-in.o
                0x0000000088002688                arch_lmb_reserve
 .text.update_os_arch_secondary_cores
                0x00000000880026ac        0x4 arch/arm/lib/built-in.o
                0x00000000880026ac                update_os_arch_secondary_cores
 .text.boot_jump_linux
                0x00000000880026b0       0xc0 arch/arm/lib/built-in.o
 .text.do_bootm_linux
                0x0000000088002770       0x74 arch/arm/lib/built-in.o
                0x0000000088002770                do_bootm_linux
 .text.boot_prep_vxworks
                0x00000000880027e4       0x50 arch/arm/lib/built-in.o
                0x00000000880027e4                boot_prep_vxworks
 .text.boot_jump_vxworks
                0x0000000088002834        0xc arch/arm/lib/built-in.o
                0x0000000088002834                boot_jump_vxworks
 .text.arch_reserve_stacks
                0x0000000088002840       0x10 arch/arm/lib/built-in.o
                0x0000000088002840                arch_reserve_stacks
 .text.interrupt_init
                0x0000000088002850        0x8 arch/arm/lib/built-in.o
                0x0000000088002850                interrupt_init
 .text.enable_interrupts
                0x0000000088002858        0x4 arch/arm/lib/built-in.o
                0x0000000088002858                enable_interrupts
 .text.disable_interrupts
                0x000000008800285c        0x8 arch/arm/lib/built-in.o
                0x000000008800285c                disable_interrupts
 .text.show_regs
                0x0000000088002864       0x80 arch/arm/lib/built-in.o
                0x0000000088002864                show_regs
 .text.do_bad_sync
                0x00000000880028e4       0x3c arch/arm/lib/built-in.o
                0x00000000880028e4                do_bad_sync
 .text.do_bad_irq
                0x0000000088002920       0x3c arch/arm/lib/built-in.o
                0x0000000088002920                do_bad_irq
 .text.do_bad_fiq
                0x000000008800295c       0x3c arch/arm/lib/built-in.o
                0x000000008800295c                do_bad_fiq
 .text.do_bad_error
                0x0000000088002998       0x3c arch/arm/lib/built-in.o
                0x0000000088002998                do_bad_error
 .text.do_sync  0x00000000880029d4       0x3c arch/arm/lib/built-in.o
                0x00000000880029d4                do_sync
 .text.do_irq   0x0000000088002a10       0x3c arch/arm/lib/built-in.o
                0x0000000088002a10                do_irq
 .text.do_fiq   0x0000000088002a4c       0x3c arch/arm/lib/built-in.o
                0x0000000088002a4c                do_fiq
 .text.do_error
                0x0000000088002a88       0x3c arch/arm/lib/built-in.o
                0x0000000088002a88                do_error
 .text.reset_misc
                0x0000000088002ac4        0x4 arch/arm/lib/built-in.o
                0x0000000088002ac4                reset_misc
 .text.do_reset
                0x0000000088002ac8       0x38 arch/arm/lib/built-in.o
                0x0000000088002ac8                do_reset
 .text.flush_cache
                0x0000000088002b00        0x8 arch/arm/lib/built-in.o
                0x0000000088002b00                flush_cache
 .text.vexpress64_pcie_init
                0x0000000088002b08        0x4 board/armltd/vexpress64/built-in.o
                0x0000000088002b08                vexpress64_pcie_init
 .text.board_init
                0x0000000088002b0c       0x18 board/armltd/vexpress64/built-in.o
                0x0000000088002b0c                board_init
 .text.dram_init
                0x0000000088002b24       0x10 board/armltd/vexpress64/built-in.o
                0x0000000088002b24                dram_init
 .text.dram_init_banksize
                0x0000000088002b34       0x1c board/armltd/vexpress64/built-in.o
                0x0000000088002b34                dram_init_banksize
 .text.v2m_cfg_write
                0x0000000088002b50       0x50 board/armltd/vexpress64/built-in.o
                0x0000000088002b50                v2m_cfg_write
 .text.reset_cpu
                0x0000000088002ba0       0x34 board/armltd/vexpress64/built-in.o
                0x0000000088002ba0                reset_cpu
 .text.board_eth_init
                0x0000000088002bd4        0xc board/armltd/vexpress64/built-in.o
                0x0000000088002bd4                board_eth_init
 .text.do_go_exec
                0x0000000088002be0       0x10 cmd/built-in.o
                0x0000000088002be0                do_go_exec
 .text.do_go    0x0000000088002bf0       0x84 cmd/built-in.o
 .text.do_bootm
                0x0000000088002c74      0x118 cmd/built-in.o
                0x0000000088002c74                do_bootm
 .text.do_bootd
                0x0000000088002d8c       0x24 cmd/built-in.o
                0x0000000088002d8c                do_bootd
 .text.image_info
                0x0000000088002db0       0xe0 cmd/built-in.o
 .text.do_iminfo
                0x0000000088002e90       0x7c cmd/built-in.o
 .text.do_booti
                0x0000000088002f0c      0x160 cmd/built-in.o
                0x0000000088002f0c                do_booti
 .text.bootm_maybe_autostart
                0x000000008800306c       0x78 cmd/built-in.o
                0x000000008800306c                bootm_maybe_autostart
 .text.do_help  0x00000000880030e4       0x38 cmd/built-in.o
 *fill*         0x000000008800311c        0x4 
 .text.do_version
                0x0000000088003120       0x48 cmd/built-in.o
 .text.parse_flash
                0x0000000088003168      0x30c cmd/built-in.o
 .text.load_image
                0x0000000088003474      0x144 cmd/built-in.o
 .text.do_afs   0x00000000880035b8      0x258 cmd/built-in.o
 .text.source   0x0000000088003810       0xf4 cmd/built-in.o
                0x0000000088003810                source
 .text.do_source
                0x0000000088003904       0x54 cmd/built-in.o
 .text.print_num
                0x0000000088003958       0x14 cmd/built-in.o
 .text.do_bdinfo
                0x000000008800396c      0x190 cmd/built-in.o
 .text.bootefi_open_dp
                0x0000000088003afc       0x14 cmd/built-in.o
 .text.do_bootefi_exec
                0x0000000088003b10      0x228 cmd/built-in.o
 .text.do_bootefi
                0x0000000088003d38       0xa0 cmd/built-in.o
 .text.efi_set_bootdev
                0x0000000088003dd8       0xe0 cmd/built-in.o
                0x0000000088003dd8                efi_set_bootdev
 .text.parse_argv
                0x0000000088003eb8       0x64 cmd/built-in.o
 .text.do_icache
                0x0000000088003f1c       0x8c cmd/built-in.o
 .text.do_dcache
                0x0000000088003fa8       0x8c cmd/built-in.o
 .text.do_echo  0x0000000088004034       0xe4 cmd/built-in.o
 .text.load_elf_image_shdr
                0x0000000088004118       0xa8 cmd/built-in.o
 .text.valid_elf_image
                0x00000000880041c0       0x54 cmd/built-in.o
                0x00000000880041c0                valid_elf_image
 .text.do_bootelf
                0x0000000088004214      0x1cc cmd/built-in.o
                0x0000000088004214                do_bootelf
 .text.do_bootvx
                0x00000000880043e0      0x374 cmd/built-in.o
                0x00000000880043e0                do_bootvx
 .text.do_exit  0x0000000088004754       0x34 cmd/built-in.o
 .text.do_fat_size
                0x0000000088004788        0x8 cmd/built-in.o
                0x0000000088004788                do_fat_size
 .text.do_fat_fsload
                0x0000000088004790        0x8 cmd/built-in.o
                0x0000000088004790                do_fat_fsload
 .text.do_fat_ls
                0x0000000088004798        0x8 cmd/built-in.o
 .text.do_fat_fsinfo
                0x00000000880047a0       0x9c cmd/built-in.o
 .text.fdt_valid
                0x000000008800483c       0xcc cmd/built-in.o
 .text.is_printable_string
                0x0000000088004908       0xa0 cmd/built-in.o
 .text.print_data
                0x00000000880049a8      0x1cc cmd/built-in.o
 .text.set_working_fdt_addr
                0x0000000088004b74       0x18 cmd/built-in.o
                0x0000000088004b74                set_working_fdt_addr
 .text.do_fdt   0x0000000088004b8c      0xe48 cmd/built-in.o
 .text.flash_fill_sect_ranges
                0x00000000880059d4      0x184 cmd/built-in.o
 .text.abbrev_spec
                0x0000000088005b58      0x158 cmd/built-in.o
 .text.do_flinfo
                0x0000000088005cb0       0x68 cmd/built-in.o
 .text.flash_sect_roundb
                0x0000000088005d18       0xc8 cmd/built-in.o
                0x0000000088005d18                flash_sect_roundb
 .text.addr_spec
                0x0000000088005de0       0xd0 cmd/built-in.o
 .text.flash_sect_erase
                0x0000000088005eb0       0xb8 cmd/built-in.o
                0x0000000088005eb0                flash_sect_erase
 .text.do_flerase
                0x0000000088005f68      0x18c cmd/built-in.o
 .text.flash_sect_protect
                0x00000000880060f4      0x130 cmd/built-in.o
                0x00000000880060f4                flash_sect_protect
 .text.do_protect
                0x0000000088006224      0x324 cmd/built-in.o
 .text.bin_data_init
                0x0000000088006548       0x1c cmd/built-in.o
 .text.k_data_save
                0x0000000088006564       0x34 cmd/built-in.o
 .text.k_data_restore
                0x0000000088006598       0x34 cmd/built-in.o
 .text.load_serial_ymodem
                0x00000000880065cc      0x11c cmd/built-in.o
 .text.getcxmodem
                0x00000000880066e8       0x24 cmd/built-in.o
 .text.bin_data_char
                0x000000008800670c       0x28 cmd/built-in.o
 .text.chk1.constprop.1
                0x0000000088006734       0x34 cmd/built-in.o
 .text.s1_sendpacket.constprop.2
                0x0000000088006768       0x60 cmd/built-in.o
 .text.do_load_serial_bin
                0x00000000880067c8      0x7f8 cmd/built-in.o
 .text.do_mem_loop
                0x0000000088006fc0      0x144 cmd/built-in.o
 .text.do_mem_md
                0x0000000088007104       0xf4 cmd/built-in.o
 .text.do_mem_cmp
                0x00000000880071f8      0x1a4 cmd/built-in.o
 .text.do_mem_base
                0x000000008800739c       0x4c cmd/built-in.o
 .text.do_mem_mw
                0x00000000880073e8       0xfc cmd/built-in.o
 .text.do_mem_cp
                0x00000000880074e4      0x174 cmd/built-in.o
 .text.do_mem_crc
                0x0000000088007658       0x30 cmd/built-in.o
 .text.do_mem_mtest
                0x0000000088007688      0x258 cmd/built-in.o
 .text.mod_mem.isra.2
                0x00000000880078e0      0x1d4 cmd/built-in.o
 .text.do_mem_mm
                0x0000000088007ab4        0x8 cmd/built-in.o
 .text.do_mem_nm
                0x0000000088007abc        0x8 cmd/built-in.o
 .text.extract_range
                0x0000000088007ac4       0x64 cmd/built-in.o
 .text.do_mii   0x0000000088007b28      0x914 cmd/built-in.o
 .text.netboot_common
                0x000000008800843c      0x280 cmd/built-in.o
 .text.do_bootp
                0x00000000880086bc        0xc cmd/built-in.o
 .text.do_dhcp  0x00000000880086c8        0xc cmd/built-in.o
 .text.do_tftpb
                0x00000000880086d4       0x50 cmd/built-in.o
                0x00000000880086d4                do_tftpb
 .text.do_ping  0x0000000088008724       0x74 cmd/built-in.o
 .text.do_get_ext2
                0x0000000088008798        0x8 cmd/built-in.o
 .text.do_get_any
                0x00000000880087a0        0x8 cmd/built-in.o
 .text.eol_or_eof
                0x00000000880087a8       0x24 cmd/built-in.o
 .text.do_pxe   0x00000000880087cc       0x8c cmd/built-in.o
 .text.label_print
                0x0000000088008858       0x1c cmd/built-in.o
 .text.do_get_tftp
                0x0000000088008874       0x44 cmd/built-in.o
 .text.from_env
                0x00000000880088b8       0x3c cmd/built-in.o
 .text.get_string
                0x00000000880088f4       0xf4 cmd/built-in.o
 .text.label_destroy
                0x00000000880089e8       0x68 cmd/built-in.o
 .text.destroy_pxe_menu
                0x0000000088008a50       0x68 cmd/built-in.o
 .text.get_token
                0x0000000088008ab8      0x138 cmd/built-in.o
 .text.parse_sliteral
                0x0000000088008bf0       0x6c cmd/built-in.o
 .text.parse_integer
                0x0000000088008c5c       0x84 cmd/built-in.o
 .text.do_get_fat
                0x0000000088008ce0       0x44 cmd/built-in.o
 .text.format_mac_pxe.constprop.9
                0x0000000088008d24       0x6c cmd/built-in.o
 .text.get_relfile
                0x0000000088008d90      0x13c cmd/built-in.o
 .text.get_pxe_file
                0x0000000088008ecc       0x60 cmd/built-in.o
 .text.handle_include
                0x0000000088008f2c       0xc4 cmd/built-in.o
 .text.parse_pxefile_top
                0x0000000088008ff0      0x418 cmd/built-in.o
 .text.parse_pxefile
                0x0000000088009408       0x84 cmd/built-in.o
 .text.get_pxelinux_path
                0x000000008800948c       0x98 cmd/built-in.o
 .text.do_pxe_get
                0x0000000088009524      0x164 cmd/built-in.o
 .text.get_relfile_envaddr
                0x0000000088009688       0x5c cmd/built-in.o
 .text.label_boot
                0x00000000880096e4      0x594 cmd/built-in.o
 .text.handle_pxe_menu
                0x0000000088009c78      0x178 cmd/built-in.o
 .text.do_pxe_boot
                0x0000000088009df0       0xe8 cmd/built-in.o
 .text.do_sysboot
                0x0000000088009ed8      0x1f8 cmd/built-in.o
 .text.do_false
                0x000000008800a0d0        0x8 cmd/built-in.o
 .text.do_true  0x000000008800a0d8        0x8 cmd/built-in.o
 .text.do_test  0x000000008800a0e0      0x334 cmd/built-in.o
 .text.do_unzip
                0x000000008800a414       0xbc cmd/built-in.o
 .text.do_gzwrite
                0x000000008800a4d0      0x118 cmd/built-in.o
 .text.do_env_delete
                0x000000008800a5e8       0xb8 cmd/built-in.o
 .text.do_env_save
                0x000000008800a6a0       0x30 cmd/built-in.o
 .text.do_env   0x000000008800a6d0       0x80 cmd/built-in.o
 .text.env_print
                0x000000008800a750       0xcc cmd/built-in.o
 .text.do_env_print
                0x000000008800a81c       0xe4 cmd/built-in.o
 .text.do_env_import
                0x000000008800a900      0x270 cmd/built-in.o
 .text.do_env_default
                0x000000008800ab70       0x94 cmd/built-in.o
 .text._do_env_set.isra.1
                0x000000008800ac04      0x1d0 cmd/built-in.o
 .text.do_env_set
                0x000000008800add4       0x20 cmd/built-in.o
 .text.get_env_id
                0x000000008800adf4        0xc cmd/built-in.o
                0x000000008800adf4                get_env_id
 .text.setenv   0x000000008800ae00       0x5c cmd/built-in.o
                0x000000008800ae00                setenv
 .text.setenv_ulong
                0x000000008800ae5c       0x2c cmd/built-in.o
                0x000000008800ae5c                setenv_ulong
 .text.setenv_hex
                0x000000008800ae88       0x3c cmd/built-in.o
                0x000000008800ae88                setenv_hex
 .text.do_env_export
                0x000000008800aec4      0x244 cmd/built-in.o
 .text.envmatch
                0x000000008800b108       0x84 cmd/built-in.o
                0x000000008800b108                envmatch
 .text.getenv_f
                0x000000008800b18c       0xf0 cmd/built-in.o
                0x000000008800b18c                getenv_f
 .text.getenv   0x000000008800b27c       0x78 cmd/built-in.o
                0x000000008800b27c                getenv
 .text.getenv_hex
                0x000000008800b2f4       0x48 cmd/built-in.o
                0x000000008800b2f4                getenv_hex
 .text.getenv_ulong
                0x000000008800b33c       0x44 cmd/built-in.o
                0x000000008800b33c                getenv_ulong
 .text.board_init_f_alloc_reserve
                0x000000008800b380       0x10 common/built-in.o
                0x000000008800b380                board_init_f_alloc_reserve
 .text.board_init_f_init_reserve
                0x000000008800b390       0x30 common/built-in.o
                0x000000008800b390                board_init_f_init_reserve
 .text.show_boot_progress
                0x000000008800b3c0        0x4 common/built-in.o
                0x000000008800b3c0                show_boot_progress
 .text.main_loop
                0x000000008800b3c4       0x2c common/built-in.o
                0x000000008800b3c4                main_loop
 .text.dummy    0x000000008800b3f0        0x4 common/built-in.o
 .text.get_version
                0x000000008800b3f4        0x8 common/built-in.o
                0x000000008800b3f4                get_version
 .text.jumptable_init
                0x000000008800b3fc      0x1e0 common/built-in.o
                0x000000008800b3fc                jumptable_init
 .text.hash_command
                0x000000008800b5dc       0xc4 common/built-in.o
                0x000000008800b5dc                hash_command
 .text.b_reset  0x000000008800b6a0       0x18 common/built-in.o
 .text.static_get
                0x000000008800b6b8       0x1c common/built-in.o
 .text.static_peek
                0x000000008800b6d4        0xc common/built-in.o
 .text.file_peek
                0x000000008800b6e0        0xc common/built-in.o
 .text.mapset   0x000000008800b6ec       0x20 common/built-in.o
 .text.syntax_err
                0x000000008800b70c        0xc common/built-in.o
 .text.free_pipe_list
                0x000000008800b718       0xf8 common/built-in.o
 .text.xmalloc  0x000000008800b810       0x28 common/built-in.o
 .text.new_pipe
                0x000000008800b838       0x2c common/built-in.o
 .text.xrealloc
                0x000000008800b864       0x28 common/built-in.o
 .text.done_command
                0x000000008800b88c       0x94 common/built-in.o
 .text.done_pipe
                0x000000008800b920       0x58 common/built-in.o
 .text.done_word
                0x000000008800b978      0x2b4 common/built-in.o
 .text.do_showvar
                0x000000008800bc2c      0x124 common/built-in.o
 .text.is_assignment
                0x000000008800bd50       0x54 common/built-in.o
 .text.file_get
                0x000000008800bda4      0x1f4 common/built-in.o
 .text.b_addchr
                0x000000008800bf98       0x90 common/built-in.o
 .text.b_addqchr
                0x000000008800c028       0x58 common/built-in.o
 .text.get_local_var
                0x000000008800c080       0x90 common/built-in.o
                0x000000008800c080                get_local_var
 .text.set_local_var
                0x000000008800c110      0x1bc common/built-in.o
                0x000000008800c110                set_local_var
 .text.insert_var_value_sub
                0x000000008800c2cc      0x2d0 common/built-in.o
 .text.parse_string_outer
                0x000000008800c59c      0x100 common/built-in.o
                0x000000008800c59c                parse_string_outer
 .text.run_list_real
                0x000000008800c69c      0x7a8 common/built-in.o
 .text.parse_stream_outer
                0x000000008800ce44      0x6c0 common/built-in.o
 .text.parse_file_outer
                0x000000008800d504       0x44 common/built-in.o
                0x000000008800d504                parse_file_outer
 .text.u_boot_hush_start
                0x000000008800d548       0x5c common/built-in.o
                0x000000008800d548                u_boot_hush_start
 .text.bootdelay_process
                0x000000008800d5a4       0x58 common/built-in.o
                0x000000008800d5a4                bootdelay_process
 .text.autoboot_command
                0x000000008800d5fc       0xe0 common/built-in.o
                0x000000008800d5fc                autoboot_command
 .text.print_cpuinfo
                0x000000008800d6dc        0x8 common/built-in.o
 .text.display_text_info
                0x000000008800d6e4        0x8 common/built-in.o
 .text.setup_mon_len
                0x000000008800d6ec       0x20 common/built-in.o
 .text.arch_cpu_init
                0x000000008800d70c        0x8 common/built-in.o
                0x000000008800d70c                arch_cpu_init
 .text.reserve_round_4k
                0x000000008800d714       0x14 common/built-in.o
 .text.reserve_trace
                0x000000008800d728        0x8 common/built-in.o
 .text.reserve_uboot
                0x000000008800d730       0x2c common/built-in.o
 .text.reserve_malloc
                0x000000008800d75c       0x14 common/built-in.o
 .text.setup_machine
                0x000000008800d770        0x8 common/built-in.o
 .text.reserve_global_data
                0x000000008800d778       0x1c common/built-in.o
 .text.reserve_fdt
                0x000000008800d794       0x48 common/built-in.o
 .text.display_new_sp
                0x000000008800d7dc        0x8 common/built-in.o
 .text.initf_console_record
                0x000000008800d7e4        0x8 common/built-in.o
 .text.reserve_arch
                0x000000008800d7ec        0x8 common/built-in.o
                0x000000008800d7ec                reserve_arch
 .text.arch_cpu_init_dm
                0x000000008800d7f4        0x8 common/built-in.o
                0x000000008800d7f4                arch_cpu_init_dm
 .text.reserve_mmu
                0x000000008800d7fc       0x4c common/built-in.o
 .text.announce_dram_init
                0x000000008800d848       0x20 common/built-in.o
 .text.init_baud_rate
                0x000000008800d868       0x3c common/built-in.o
 .text.mark_bootstage
                0x000000008800d8a4       0x1c common/built-in.o
 .text.initf_dm
                0x000000008800d8c0        0x8 common/built-in.o
 .text.setup_reloc
                0x000000008800d8c8       0x40 common/built-in.o
 .text.reloc_fdt
                0x000000008800d908       0x3c common/built-in.o
 .text.reserve_board
                0x000000008800d944       0x40 common/built-in.o
 .text.board_add_ram_info
                0x000000008800d984        0x4 common/built-in.o
                0x000000008800d984                board_add_ram_info
 .text.show_dram_config
                0x000000008800d988       0x38 common/built-in.o
 .text.setup_dram_config
                0x000000008800d9c0       0x18 common/built-in.o
 .text.board_get_usable_ram_top
                0x000000008800d9d8       0x1c common/built-in.o
                0x000000008800d9d8                board_get_usable_ram_top
 .text.board_reserve_ram_top
                0x000000008800d9f4        0x4 common/built-in.o
                0x000000008800d9f4                board_reserve_ram_top
 .text.setup_dest_addr
                0x000000008800d9f8       0x5c common/built-in.o
 .text.reserve_stacks
                0x000000008800da54       0x1c common/built-in.o
 .text.board_init_f
                0x000000008800da70       0x2c common/built-in.o
                0x000000008800da70                board_init_f
 .text.bootstage_relocate
                0x000000008800da9c        0x8 common/built-in.o
 .text.initr_trace
                0x000000008800daa4        0x8 common/built-in.o
 .text.initr_reloc
                0x000000008800daac       0x18 common/built-in.o
 .text.initr_barrier
                0x000000008800dac4        0x8 common/built-in.o
 .text.initr_console_record
                0x000000008800dacc        0x8 common/built-in.o
 .text.power_init_board
                0x000000008800dad4        0x8 common/built-in.o
                0x000000008800dad4                power_init_board
 .text.initr_announce
                0x000000008800dadc        0x8 common/built-in.o
 .text.run_main_loop
                0x000000008800dae4       0x10 common/built-in.o
 .text.initr_net
                0x000000008800daf4       0x24 common/built-in.o
 .text.initr_ethaddr
                0x000000008800db18       0x28 common/built-in.o
 .text.initr_enable_interrupts
                0x000000008800db40       0x18 common/built-in.o
 .text.initr_jumptable
                0x000000008800db58       0x18 common/built-in.o
 .text.initr_env
                0x000000008800db70       0x3c common/built-in.o
 .text.initr_serial
                0x000000008800dbac       0x18 common/built-in.o
 .text.initr_bootstage
                0x000000008800dbc4       0x1c common/built-in.o
 .text.initr_dm
                0x000000008800dbe0       0x14 common/built-in.o
 .text.initr_malloc
                0x000000008800dbf4       0x24 common/built-in.o
 .text.initr_reloc_global_data
                0x000000008800dc18       0x3c common/built-in.o
 .text.initr_caches
                0x000000008800dc54       0x18 common/built-in.o
 .text.board_flash_wp_on
                0x000000008800dc6c        0x8 common/built-in.o
                0x000000008800dc6c                board_flash_wp_on
 .text.initr_flash
                0x000000008800dc74       0x74 common/built-in.o
 .text.cpu_secondary_init_r
                0x000000008800dce8        0x4 common/built-in.o
                0x000000008800dce8                cpu_secondary_init_r
 .text.initr_secondary_cpu
                0x000000008800dcec       0x18 common/built-in.o
 .text.board_init_r
                0x000000008800dd04       0x18 common/built-in.o
                0x000000008800dd04                board_init_r
 .text.bootm_find_images
                0x000000008800dd1c       0xb4 common/built-in.o
                0x000000008800dd1c                bootm_find_images
 .text.bootm_decomp_image
                0x000000008800ddd0      0x180 common/built-in.o
                0x000000008800ddd0                bootm_decomp_image
 .text.bootm_disable_interrupts
                0x000000008800df50       0x18 common/built-in.o
                0x000000008800df50                bootm_disable_interrupts
 .text.do_bootm_states
                0x000000008800df68      0x730 common/built-in.o
                0x000000008800df68                do_bootm_states
 .text.copy_args
                0x000000008800e698       0x74 common/built-in.o
 .text.do_bootm_rtems
                0x000000008800e70c       0x50 common/built-in.o
 .text.do_bootm_plan9
                0x000000008800e75c       0xb8 common/built-in.o
 .text.do_bootm_standalone
                0x000000008800e814       0x74 common/built-in.o
 .text.do_bootm_qnxelf
                0x000000008800e888       0x68 common/built-in.o
 .text.do_bootm_netbsd
                0x000000008800e8f0      0x12c common/built-in.o
 .text.do_bootvx_fdt
                0x000000008800ea1c      0x120 common/built-in.o
                0x000000008800ea1c                do_bootvx_fdt
 .text.do_bootm_vxworks
                0x000000008800eb3c       0x2c common/built-in.o
 .text.arch_preboot_os
                0x000000008800eb68        0x4 common/built-in.o
                0x000000008800eb68                arch_preboot_os
 .text.boot_selected_os
                0x000000008800eb6c       0x78 common/built-in.o
                0x000000008800eb6c                boot_selected_os
 .text.bootm_os_get_boot_func
                0x000000008800ebe4       0x10 common/built-in.o
                0x000000008800ebe4                bootm_os_get_boot_func
 .text.regex_callback
                0x000000008800ebf4      0x14c common/built-in.o
 .text.env_attr_walk
                0x000000008800ed40      0x130 common/built-in.o
                0x000000008800ed40                env_attr_walk
 .text.env_attr_lookup
                0x000000008800ee70       0x80 common/built-in.o
                0x000000008800ee70                env_attr_lookup
 .text.clear_callback
                0x000000008800eef0        0xc common/built-in.o
 .text.find_env_callback
                0x000000008800eefc       0x80 common/built-in.o
 .text.on_callbacks
                0x000000008800ef7c       0x60 common/built-in.o
 .text.set_callback
                0x000000008800efdc       0x94 common/built-in.o
 .text.env_callback_init
                0x000000008800f070       0xbc common/built-in.o
                0x000000008800f070                env_callback_init
 .text.skip_num
                0x000000008800f12c       0x70 common/built-in.o
 .text.clear_flags
                0x000000008800f19c        0xc common/built-in.o
 .text.on_flags
                0x000000008800f1a8       0x60 common/built-in.o
 .text.env_flags_parse_vartype
                0x000000008800f208       0x64 common/built-in.o
                0x000000008800f208                env_flags_parse_vartype
 .text.env_flags_parse_varaccess
                0x000000008800f26c       0x60 common/built-in.o
                0x000000008800f26c                env_flags_parse_varaccess
 .text.set_flags
                0x000000008800f2cc       0xb0 common/built-in.o
 .text.eth_validate_ethaddr_str
                0x000000008800f37c       0xa4 common/built-in.o
                0x000000008800f37c                eth_validate_ethaddr_str
 .text.env_flags_init
                0x000000008800f420       0xc8 common/built-in.o
                0x000000008800f420                env_flags_init
 .text.env_flags_validate
                0x000000008800f4e8      0x2b8 common/built-in.o
                0x000000008800f4e8                env_flags_validate
 .text.env_init
                0x000000008800f7a0       0x68 common/built-in.o
                0x000000008800f7a0                env_init
 .text.saveenv  0x000000008800f808       0xb0 common/built-in.o
                0x000000008800f808                saveenv
 .text.env_relocate_spec
                0x000000008800f8b8        0xc common/built-in.o
                0x000000008800f8b8                env_relocate_spec
 .text.fdt_find_and_setprop
                0x000000008800f8c4       0x94 common/built-in.o
                0x000000008800f8c4                fdt_find_and_setprop
 .text.fdt_find_or_add_subnode
                0x000000008800f958       0x7c common/built-in.o
                0x000000008800f958                fdt_find_or_add_subnode
 .text.fdt_root
                0x000000008800f9d4       0x98 common/built-in.o
                0x000000008800f9d4                fdt_root
 .text.fdt_initrd
                0x000000008800fa6c      0x1b8 common/built-in.o
                0x000000008800fa6c                fdt_initrd
 .text.fdt_chosen
                0x000000008800fc24       0xbc common/built-in.o
                0x000000008800fc24                fdt_chosen
 .text.do_fixup_by_path
                0x000000008800fce0       0x4c common/built-in.o
                0x000000008800fce0                do_fixup_by_path
 .text.fdt_fixup_memory_banks
                0x000000008800fd2c      0x1d8 common/built-in.o
                0x000000008800fd2c                fdt_fixup_memory_banks
 .text.fdt_fixup_memory
                0x000000008800ff04       0x2c common/built-in.o
                0x000000008800ff04                fdt_fixup_memory
 .text.fdt_fixup_ethernet
                0x000000008800ff30      0x1ac common/built-in.o
                0x000000008800ff30                fdt_fixup_ethernet
 .text.fdt_shrink_to_minimum
                0x00000000880100dc       0xc4 common/built-in.o
                0x00000000880100dc                fdt_shrink_to_minimum
 .text.miiphy_get_dev_by_name
                0x00000000880101a0       0x70 common/built-in.o
                0x00000000880101a0                miiphy_get_dev_by_name
 .text.miiphy_init
                0x0000000088010210       0x1c common/built-in.o
                0x0000000088010210                miiphy_init
 .text.miiphy_set_current_dev
                0x000000008801022c       0x40 common/built-in.o
                0x000000008801022c                miiphy_set_current_dev
 .text.miiphy_get_active_dev
                0x000000008801026c       0x60 common/built-in.o
 .text.miiphy_get_current_dev
                0x00000000880102cc       0x18 common/built-in.o
                0x00000000880102cc                miiphy_get_current_dev
 .text.miiphy_read
                0x00000000880102e4       0x58 common/built-in.o
                0x00000000880102e4                miiphy_read
 .text.miiphy_write
                0x000000008801033c       0x54 common/built-in.o
                0x000000008801033c                miiphy_write
 .text.miiphy_listdev
                0x0000000088010390       0x90 common/built-in.o
                0x0000000088010390                miiphy_listdev
 .text.miiphy_info
                0x0000000088010420       0xa0 common/built-in.o
                0x0000000088010420                miiphy_info
 .text.miiphy_speed
                0x00000000880104c0       0x98 common/built-in.o
                0x00000000880104c0                miiphy_speed
 .text.miiphy_duplex
                0x0000000088010558       0x9c common/built-in.o
                0x0000000088010558                miiphy_duplex
 .text.miiphy_is_1000base_x
                0x00000000880105f4        0x8 common/built-in.o
                0x00000000880105f4                miiphy_is_1000base_x
 .text.flash_protect
                0x00000000880105fc      0x108 common/built-in.o
                0x00000000880105fc                flash_protect
 .text.addr2info
                0x0000000088010704       0x44 common/built-in.o
                0x0000000088010704                addr2info
 .text.flash_write
                0x0000000088010748      0x13c common/built-in.o
                0x0000000088010748                flash_write
 .text.flash_perror
                0x0000000088010884       0xe8 common/built-in.o
                0x0000000088010884                flash_perror
 .text.menu_display_statusline
                0x000000008801096c        0x4 common/built-in.o
                0x000000008801096c                menu_display_statusline
 .text.menu_default_set
                0x0000000088010970       0x94 common/built-in.o
                0x0000000088010970                menu_default_set
 .text.menu_get_choice
                0x0000000088010a04      0x1d4 common/built-in.o
                0x0000000088010a04                menu_get_choice
 .text.menu_item_add
                0x0000000088010bd8       0xe0 common/built-in.o
                0x0000000088010bd8                menu_item_add
 .text.menu_create
                0x0000000088010cb8       0xa8 common/built-in.o
                0x0000000088010cb8                menu_create
 .text.menu_destroy
                0x0000000088010d60       0x7c common/built-in.o
                0x0000000088010d60                menu_destroy
 .text.env_get_char_spec
                0x0000000088010ddc        0xc common/built-in.o
                0x0000000088010ddc                env_get_char_spec
 .text.env_get_addr
                0x0000000088010de8       0x24 common/built-in.o
                0x0000000088010de8                env_get_addr
 .text.env_get_char_memory
                0x0000000088010e0c       0x18 common/built-in.o
                0x0000000088010e0c                env_get_char_memory
 .text.env_get_char
                0x0000000088010e24       0x28 common/built-in.o
                0x0000000088010e24                env_get_char
 .text.getenv_yesno
                0x0000000088010e4c       0x4c common/built-in.o
                0x0000000088010e4c                getenv_yesno
 .text.getenv_default
                0x0000000088010e98       0x3c common/built-in.o
                0x0000000088010e98                getenv_default
 .text.set_default_env
                0x0000000088010ed4       0xb0 common/built-in.o
                0x0000000088010ed4                set_default_env
 .text.set_default_vars
                0x0000000088010f84       0x2c common/built-in.o
                0x0000000088010f84                set_default_vars
 .text.env_import
                0x0000000088010fb0       0xdc common/built-in.o
                0x0000000088010fb0                env_import
 .text.env_export
                0x000000008801108c       0x94 common/built-in.o
                0x000000008801108c                env_export
 .text.env_relocate
                0x0000000088011120       0x30 common/built-in.o
                0x0000000088011120                env_relocate
 .text.console_setfile
                0x0000000088011150       0xc4 common/built-in.o
 .text.puts     0x0000000088011214       0x2c common/built-in.o
                0x0000000088011214                puts
 .text.putc     0x0000000088011240       0x30 common/built-in.o
                0x0000000088011240                putc
 .text.fgetc    0x0000000088011270       0x24 common/built-in.o
                0x0000000088011270                fgetc
 .text.getc     0x0000000088011294       0x24 common/built-in.o
                0x0000000088011294                getc
 .text.ftstc    0x00000000880112b8       0x24 common/built-in.o
                0x00000000880112b8                ftstc
 .text.tstc     0x00000000880112dc       0x24 common/built-in.o
                0x00000000880112dc                tstc
 .text.ctrlc    0x0000000088011300       0x58 common/built-in.o
                0x0000000088011300                ctrlc
 .text.had_ctrlc
                0x0000000088011358        0xc common/built-in.o
                0x0000000088011358                had_ctrlc
 .text.clear_ctrlc
                0x0000000088011364        0xc common/built-in.o
                0x0000000088011364                clear_ctrlc
 .text.search_device
                0x0000000088011370       0x3c common/built-in.o
                0x0000000088011370                search_device
 .text.console_assign
                0x00000000880113ac       0x60 common/built-in.o
                0x00000000880113ac                console_assign
 .text.on_console
                0x000000008801140c       0xc4 common/built-in.o
 .text.console_init_f
                0x00000000880114d0       0x10 common/built-in.o
                0x00000000880114d0                console_init_f
 .text.stdio_print_current_devices
                0x00000000880114e0       0xc0 common/built-in.o
                0x00000000880114e0                stdio_print_current_devices
 .text.console_init_r
                0x00000000880115a0       0xe0 common/built-in.o
                0x00000000880115a0                console_init_r
 .text.sbrk     0x0000000088011680       0x70 common/built-in.o
                0x0000000088011680                sbrk
 .text.mem_malloc_init
                0x00000000880116f0       0x28 common/built-in.o
                0x00000000880116f0                mem_malloc_init
 .text.malloc_trim
                0x0000000088011718       0xd4 common/built-in.o
                0x0000000088011718                malloc_trim
 .text.free     0x00000000880117ec      0x250 common/built-in.o
                0x00000000880117ec                free
 .text.malloc   0x0000000088011a3c      0x6b8 common/built-in.o
                0x0000000088011a3c                malloc
 .text.calloc   0x00000000880120f4      0x100 common/built-in.o
                0x00000000880120f4                calloc
 .text.realloc  0x00000000880121f4      0x480 common/built-in.o
                0x00000000880121f4                realloc
 .text.memalign
                0x0000000088012674      0x194 common/built-in.o
                0x0000000088012674                memalign
 .text.initf_malloc
                0x0000000088012808       0x18 common/built-in.o
                0x0000000088012808                initf_malloc
 .text.malloc_simple
                0x0000000088012820       0x34 common/built-in.o
                0x0000000088012820                malloc_simple
 .text.on_loadaddr
                0x0000000088012854       0x38 common/built-in.o
 .text.image_check_hcrc
                0x000000008801288c       0x50 common/built-in.o
                0x000000008801288c                image_check_hcrc
 .text.image_check_dcrc
                0x00000000880128dc       0x44 common/built-in.o
                0x00000000880128dc                image_check_dcrc
 .text.image_multi_count
                0x0000000088012920       0x20 common/built-in.o
                0x0000000088012920                image_multi_count
 .text.image_multi_getimg
                0x0000000088012940       0xa0 common/built-in.o
                0x0000000088012940                image_multi_getimg
 .text.getenv_bootm_low
                0x00000000880129e0       0x34 common/built-in.o
                0x00000000880129e0                getenv_bootm_low
 .text.getenv_bootm_size
                0x0000000088012a14       0x78 common/built-in.o
                0x0000000088012a14                getenv_bootm_size
 .text.getenv_bootm_mapsize
                0x0000000088012a8c       0x30 common/built-in.o
                0x0000000088012a8c                getenv_bootm_mapsize
 .text.memmove_wd
                0x0000000088012abc       0x10 common/built-in.o
                0x0000000088012abc                memmove_wd
 .text.genimg_print_size
                0x0000000088012acc       0x38 common/built-in.o
                0x0000000088012acc                genimg_print_size
 .text.get_table_entry
                0x0000000088012b04       0x20 common/built-in.o
                0x0000000088012b04                get_table_entry
 .text.get_table_entry_name
                0x0000000088012b24       0x34 common/built-in.o
                0x0000000088012b24                get_table_entry_name
 .text.genimg_get_os_name
                0x0000000088012b58       0x18 common/built-in.o
                0x0000000088012b58                genimg_get_os_name
 .text.genimg_get_arch_name
                0x0000000088012b70       0x18 common/built-in.o
                0x0000000088012b70                genimg_get_arch_name
 .text.genimg_get_type_name
                0x0000000088012b88       0x18 common/built-in.o
                0x0000000088012b88                genimg_get_type_name
 .text.genimg_get_comp_name
                0x0000000088012ba0       0x18 common/built-in.o
                0x0000000088012ba0                genimg_get_comp_name
 .text.image_print_contents
                0x0000000088012bb8      0x19c common/built-in.o
                0x0000000088012bb8                image_print_contents
 .text.genimg_get_kernel_addr_fit
                0x0000000088012d54       0x1c common/built-in.o
                0x0000000088012d54                genimg_get_kernel_addr_fit
 .text.genimg_get_kernel_addr
                0x0000000088012d70       0x24 common/built-in.o
                0x0000000088012d70                genimg_get_kernel_addr
 .text.genimg_get_format
                0x0000000088012d94       0x40 common/built-in.o
                0x0000000088012d94                genimg_get_format
 .text.genimg_get_image
                0x0000000088012dd4        0x4 common/built-in.o
                0x0000000088012dd4                genimg_get_image
 .text.genimg_has_config
                0x0000000088012dd8        0x8 common/built-in.o
                0x0000000088012dd8                genimg_has_config
 .text.boot_get_ramdisk
                0x0000000088012de0      0x26c common/built-in.o
                0x0000000088012de0                boot_get_ramdisk
 .text.boot_ramdisk_high
                0x000000008801304c      0x144 common/built-in.o
                0x000000008801304c                boot_ramdisk_high
 .text.boot_get_setup
                0x0000000088013190        0x8 common/built-in.o
                0x0000000088013190                boot_get_setup
 .text.image_setup_linux
                0x0000000088013198       0x80 common/built-in.o
                0x0000000088013198                image_setup_linux
 .text.fdt_error
                0x0000000088013218       0x38 common/built-in.o
 .text.boot_fdt_add_mem_rsv_regions
                0x0000000088013250       0x9c common/built-in.o
                0x0000000088013250                boot_fdt_add_mem_rsv_regions
 .text.boot_relocate_fdt
                0x00000000880132ec      0x1b4 common/built-in.o
                0x00000000880132ec                boot_relocate_fdt
 .text.boot_get_fdt
                0x00000000880134a0      0x2a8 common/built-in.o
                0x00000000880134a0                boot_get_fdt
 .text.ft_verify_fdt
                0x0000000088013748        0x8 common/built-in.o
                0x0000000088013748                ft_verify_fdt
 .text.image_setup_libfdt
                0x0000000088013750      0x114 common/built-in.o
                0x0000000088013750                image_setup_libfdt
 .text.get_effective_memsize
                0x0000000088013864        0x8 common/built-in.o
                0x0000000088013864                get_effective_memsize
 .text.stdio_serial_tstc
                0x000000008801386c        0x4 common/built-in.o
 .text.stdio_serial_getc
                0x0000000088013870        0x4 common/built-in.o
 .text.stdio_serial_puts
                0x0000000088013874        0x8 common/built-in.o
 .text.stdio_serial_putc
                0x000000008801387c        0x8 common/built-in.o
 .text.stdio_get_list
                0x0000000088013884       0x10 common/built-in.o
                0x0000000088013884                stdio_get_list
 .text.stdio_get_by_name
                0x0000000088013894       0x68 common/built-in.o
                0x0000000088013894                stdio_get_by_name
 .text.stdio_clone
                0x00000000880138fc       0x50 common/built-in.o
                0x00000000880138fc                stdio_clone
 .text.stdio_register_dev
                0x000000008801394c       0x58 common/built-in.o
                0x000000008801394c                stdio_register_dev
 .text.stdio_register
                0x00000000880139a4        0x8 common/built-in.o
                0x00000000880139a4                stdio_register
 .text.stdio_init_tables
                0x00000000880139ac       0x1c common/built-in.o
                0x00000000880139ac                stdio_init_tables
 .text.stdio_add_devices
                0x00000000880139c8       0x78 common/built-in.o
                0x00000000880139c8                stdio_add_devices
 .text.cli_simple_process_macros
                0x0000000088013a40      0x234 common/built-in.o
                0x0000000088013a40                cli_simple_process_macros
 .text.run_command
                0x0000000088013c74       0x18 common/built-in.o
                0x0000000088013c74                run_command
 .text.run_command_list
                0x0000000088013c8c       0x8c common/built-in.o
                0x0000000088013c8c                run_command_list
 .text.do_run   0x0000000088013d18       0x80 common/built-in.o
                0x0000000088013d18                do_run
 .text.cli_loop
                0x0000000088013d98       0x10 common/built-in.o
                0x0000000088013d98                cli_loop
 .text.cli_init
                0x0000000088013da8        0x4 common/built-in.o
                0x0000000088013da8                cli_init
 .text.delete_char.part.0
                0x0000000088013dac       0xfc common/built-in.o
 .text.cread_add_char
                0x0000000088013ea8      0x100 common/built-in.o
 .text.cli_readline_into_buffer
                0x0000000088013fa8      0x8b4 common/built-in.o
                0x0000000088013fa8                cli_readline_into_buffer
 .text.cli_readline
                0x000000008801485c       0x14 common/built-in.o
                0x000000008801485c                cli_readline
 .text.find_cmd_tbl
                0x0000000088014870       0xc4 common/built-in.o
                0x0000000088014870                find_cmd_tbl
 .text.find_cmd
                0x0000000088014934       0x24 common/built-in.o
                0x0000000088014934                find_cmd
 .text.cmd_usage
                0x0000000088014958       0x68 common/built-in.o
                0x0000000088014958                cmd_usage
 .text._do_help
                0x00000000880149c0      0x1a0 common/built-in.o
                0x00000000880149c0                _do_help
 .text.cmd_get_data_size
                0x0000000088014b60       0x6c common/built-in.o
                0x0000000088014b60                cmd_get_data_size
 .text.cmd_process
                0x0000000088014bcc      0x118 common/built-in.o
                0x0000000088014bcc                cmd_process
 .text.cmd_process_error
                0x0000000088014ce4       0x34 common/built-in.o
                0x0000000088014ce4                cmd_process_error
 .text.CYGACC_COMM_IF_GETC_TIMEOUT.isra.0
                0x0000000088014d18       0x5c common/built-in.o
 .text.xyzModem_flush
                0x0000000088014d74       0x1c common/built-in.o
 .text.xyzModem_get_hdr
                0x0000000088014d90      0x220 common/built-in.o
 .text.xyzModem_stream_open
                0x0000000088014fb0      0x264 common/built-in.o
                0x0000000088014fb0                xyzModem_stream_open
 .text.xyzModem_stream_read
                0x0000000088015214      0x29c common/built-in.o
                0x0000000088015214                xyzModem_stream_read
 .text.xyzModem_stream_close
                0x00000000880154b0       0x44 common/built-in.o
                0x00000000880154b0                xyzModem_stream_close
 .text.xyzModem_stream_terminate
                0x00000000880154f4       0xac common/built-in.o
                0x00000000880154f4                xyzModem_stream_terminate
 .text.xyzModem_error
                0x00000000880155a0       0x28 common/built-in.o
                0x00000000880155a0                xyzModem_error
 .text.blk_get_dev
                0x00000000880155c8        0x8 disk/built-in.o
                0x00000000880155c8                blk_get_dev
 .text.blk_get_device_by_str
                0x00000000880155d0      0x104 disk/built-in.o
                0x00000000880155d0                blk_get_device_by_str
 .text.blk_get_device_part_str
                0x00000000880156d4      0x294 disk/built-in.o
                0x00000000880156d4                blk_get_device_part_str
 .text.device_bind_common
                0x0000000088015968      0x2e4 drivers/built-in.o
 .text.alloc_priv
                0x0000000088015c4c       0x60 drivers/built-in.o
 .text.device_bind
                0x0000000088015cac       0x10 drivers/built-in.o
                0x0000000088015cac                device_bind
 .text.device_bind_by_name
                0x0000000088015cbc       0x78 drivers/built-in.o
                0x0000000088015cbc                device_bind_by_name
 .text.device_probe
                0x0000000088015d34      0x1fc drivers/built-in.o
                0x0000000088015d34                device_probe
 .text.dev_get_platdata
                0x0000000088015f30       0x34 drivers/built-in.o
                0x0000000088015f30                dev_get_platdata
 .text.dev_get_priv
                0x0000000088015f64       0x34 drivers/built-in.o
                0x0000000088015f64                dev_get_priv
 .text.dev_get_uclass_priv
                0x0000000088015f98       0x34 drivers/built-in.o
                0x0000000088015f98                dev_get_uclass_priv
 .text.lists_driver_lookup_name
                0x0000000088015fcc       0x84 drivers/built-in.o
                0x0000000088015fcc                lists_driver_lookup_name
 .text.lists_uclass_lookup
                0x0000000088016050       0x48 drivers/built-in.o
                0x0000000088016050                lists_uclass_lookup
 .text.lists_bind_drivers
                0x0000000088016098       0xbc drivers/built-in.o
                0x0000000088016098                lists_bind_drivers
 .text.dm_root  0x0000000088016154       0x38 drivers/built-in.o
                0x0000000088016154                dm_root
 .text.dm_init  0x000000008801618c       0x60 drivers/built-in.o
                0x000000008801618c                dm_init
 .text.dm_scan_platdata
                0x00000000880161ec       0x34 drivers/built-in.o
                0x00000000880161ec                dm_scan_platdata
 .text.dm_scan_other
                0x0000000088016220        0x8 drivers/built-in.o
                0x0000000088016220                dm_scan_other
 .text.dm_init_and_scan
                0x0000000088016228       0x40 drivers/built-in.o
                0x0000000088016228                dm_init_and_scan
 .text.uclass_find
                0x0000000088016268       0x48 drivers/built-in.o
                0x0000000088016268                uclass_find
 .text.uclass_get
                0x00000000880162b0      0x128 drivers/built-in.o
                0x00000000880162b0                uclass_get
 .text.uclass_find_device
                0x00000000880163d8       0x84 drivers/built-in.o
                0x00000000880163d8                uclass_find_device
 .text.uclass_find_first_device
                0x000000008801645c       0x48 drivers/built-in.o
                0x000000008801645c                uclass_find_first_device
 .text.uclass_find_device_by_seq
                0x00000000880164a4       0x90 drivers/built-in.o
                0x00000000880164a4                uclass_find_device_by_seq
 .text.uclass_get_device_tail
                0x0000000088016534       0x3c drivers/built-in.o
                0x0000000088016534                uclass_get_device_tail
 .text.uclass_get_device
                0x0000000088016570       0x38 drivers/built-in.o
                0x0000000088016570                uclass_get_device
 .text.uclass_get_device_by_seq
                0x00000000880165a8       0x68 drivers/built-in.o
                0x00000000880165a8                uclass_get_device_by_seq
 .text.uclass_first_device
                0x0000000088016610       0x3c drivers/built-in.o
                0x0000000088016610                uclass_first_device
 .text.uclass_bind_device
                0x000000008801664c       0x88 drivers/built-in.o
                0x000000008801664c                uclass_bind_device
 .text.uclass_unbind_device
                0x00000000880166d4       0x54 drivers/built-in.o
                0x00000000880166d4                uclass_unbind_device
 .text.uclass_resolve_seq
                0x0000000088016728       0xb0 drivers/built-in.o
                0x0000000088016728                uclass_resolve_seq
 .text.uclass_pre_probe_device
                0x00000000880167d8       0x68 drivers/built-in.o
                0x00000000880167d8                uclass_pre_probe_device
 .text.uclass_post_probe_device
                0x0000000088016840       0x1c drivers/built-in.o
                0x0000000088016840                uclass_post_probe_device
 .text.uclass_pre_remove_device
                0x000000008801685c       0x1c drivers/built-in.o
                0x000000008801685c                uclass_pre_remove_device
 .text.dm_warn  0x0000000088016878       0x88 drivers/built-in.o
                0x0000000088016878                dm_warn
 .text.device_free
                0x0000000088016900       0x80 drivers/built-in.o
                0x0000000088016900                device_free
 .text.device_remove
                0x0000000088016980      0x148 drivers/built-in.o
                0x0000000088016980                device_remove
 .text.show_devices
                0x0000000088016ac8      0x12c drivers/built-in.o
 .text.dm_dump_all
                0x0000000088016bf4       0x54 drivers/built-in.o
                0x0000000088016bf4                dm_dump_all
 .text.dm_dump_uclass
                0x0000000088016c48      0x128 drivers/built-in.o
                0x0000000088016c48                dm_dump_uclass
 .text.get_desc
                0x0000000088016d70       0x58 drivers/built-in.o
 .text.blk_driver_lookup_type
                0x0000000088016dc8       0x58 drivers/built-in.o
                0x0000000088016dc8                blk_driver_lookup_type
 .text.blk_get_devnum_by_type
                0x0000000088016e20       0x38 drivers/built-in.o
                0x0000000088016e20                blk_get_devnum_by_type
 .text.flash_make_cmd
                0x0000000088016e58       0x4c drivers/mtd/built-in.o
 .text.flash_isequal
                0x0000000088016ea4       0xb4 drivers/mtd/built-in.o
 .text.flash_isset
                0x0000000088016f58       0xb0 drivers/mtd/built-in.o
 .text.find_sector
                0x0000000088017008       0x80 drivers/mtd/built-in.o
 .text.cfi_reverse_geometry
                0x0000000088017088       0xb0 drivers/mtd/built-in.o
 .text.flash_add_byte.isra.5
                0x0000000088017138       0x64 drivers/mtd/built-in.o
 .text.cfi_flash_bank_addr
                0x000000008801719c        0x8 drivers/mtd/built-in.o
                0x000000008801719c                cfi_flash_bank_addr
 .text.cfi_flash_bank_size
                0x00000000880171a4        0x8 drivers/mtd/built-in.o
                0x00000000880171a4                cfi_flash_bank_size
 .text.flash_get_info
                0x00000000880171ac       0x38 drivers/mtd/built-in.o
                0x00000000880171ac                flash_get_info
 .text.flash_sector_size
                0x00000000880171e4       0x38 drivers/mtd/built-in.o
                0x00000000880171e4                flash_sector_size
 .text.flash_write_cmd
                0x000000008801721c       0x94 drivers/mtd/built-in.o
                0x000000008801721c                flash_write_cmd
 .text.flash_unlock_seq
                0x00000000880172b0       0x3c drivers/mtd/built-in.o
 .text.flash_status_check
                0x00000000880172ec      0x1dc drivers/mtd/built-in.o
 .text.flash_full_status_check
                0x00000000880174c8      0x170 drivers/mtd/built-in.o
 .text.flash_write_cfiword
                0x0000000088017638      0x1dc drivers/mtd/built-in.o
 .text.flash_erase
                0x0000000088017814      0x1d4 drivers/mtd/built-in.o
                0x0000000088017814                flash_erase
 .text.flash_print_info
                0x00000000880179e8      0x2cc drivers/mtd/built-in.o
                0x00000000880179e8                flash_print_info
 .text.write_buff
                0x0000000088017cb4      0x600 drivers/mtd/built-in.o
                0x0000000088017cb4                write_buff
 .text.flash_real_protect
                0x00000000880182b4      0x360 drivers/mtd/built-in.o
                0x00000000880182b4                flash_real_protect
 .text.__flash_cmd_reset
                0x0000000088018614       0x44 drivers/mtd/built-in.o
                0x0000000088018614                flash_cmd_reset
 .text.flash_get_size
                0x0000000088018658      0xa68 drivers/mtd/built-in.o
                0x0000000088018658                flash_get_size
 .text.flash_protect_default
                0x00000000880190c0       0x28 drivers/mtd/built-in.o
                0x00000000880190c0                flash_protect_default
 .text.flash_init
                0x00000000880190e8      0x10c drivers/mtd/built-in.o
                0x00000000880190e8                flash_init
 .text.smc_halt
                0x00000000880191f4       0x38 drivers/net/built-in.o
 .text.smc_write_hwaddr
                0x000000008801922c       0x70 drivers/net/built-in.o
 .text.smc_rcv  0x000000008801929c      0x120 drivers/net/built-in.o
 .text.smc_read_phy_register.isra.2
                0x00000000880193bc      0x180 drivers/net/built-in.o
 .text.smc_write_phy_register.isra.3
                0x000000008801953c      0x180 drivers/net/built-in.o
 .text.smc_init
                0x00000000880196bc      0x29c drivers/net/built-in.o
 .text.smc_send
                0x0000000088019958      0x23c drivers/net/built-in.o
 .text.smc91111_initialize
                0x0000000088019b94      0x11c drivers/net/built-in.o
                0x0000000088019b94                smc91111_initialize
 .text._serial_putc
                0x0000000088019cb0       0x58 drivers/serial/built-in.o
 .text._serial_getc
                0x0000000088019d08       0x40 drivers/serial/built-in.o
 .text._serial_tstc
                0x0000000088019d48       0x20 drivers/serial/built-in.o
 .text.serial_stub_putc
                0x0000000088019d68        0x8 drivers/serial/built-in.o
 .text.serial_stub_getc
                0x0000000088019d70        0x8 drivers/serial/built-in.o
                0x0000000088019d70                serial_stub_getc
 .text.serial_stub_tstc
                0x0000000088019d78        0x8 drivers/serial/built-in.o
                0x0000000088019d78                serial_stub_tstc
 .text.serial_pre_remove
                0x0000000088019d80        0x8 drivers/serial/built-in.o
 .text.serial_post_probe
                0x0000000088019d88       0xcc drivers/serial/built-in.o
 .text.serial_stub_puts
                0x0000000088019e54       0x38 drivers/serial/built-in.o
                0x0000000088019e54                serial_stub_puts
 .text.serial_init
                0x0000000088019e8c       0x7c drivers/serial/built-in.o
                0x0000000088019e8c                serial_init
 .text.serial_initialize
                0x0000000088019f08        0x4 drivers/serial/built-in.o
                0x0000000088019f08                serial_initialize
 .text.serial_putc
                0x0000000088019f0c       0x18 drivers/serial/built-in.o
                0x0000000088019f0c                serial_putc
 .text.serial_puts
                0x0000000088019f24       0x40 drivers/serial/built-in.o
                0x0000000088019f24                serial_puts
 .text.serial_getc
                0x0000000088019f64       0x18 drivers/serial/built-in.o
                0x0000000088019f64                serial_getc
 .text.serial_tstc
                0x0000000088019f7c       0x18 drivers/serial/built-in.o
                0x0000000088019f7c                serial_tstc
 .text.serial_setbrg
                0x0000000088019f94       0x2c drivers/serial/built-in.o
                0x0000000088019f94                serial_setbrg
 .text.on_baudrate
                0x0000000088019fc0      0x114 drivers/serial/built-in.o
 .text.serial_stdio_init
                0x000000008801a0d4        0x4 drivers/serial/built-in.o
                0x000000008801a0d4                serial_stdio_init
 .text.pl01x_serial_pending
                0x000000008801a0d8       0x48 drivers/serial/built-in.o
 .text.pl01x_serial_putc
                0x000000008801a120       0x38 drivers/serial/built-in.o
 .text.pl01x_serial_getc
                0x000000008801a158       0x38 drivers/serial/built-in.o
 .text.pl01x_serial_setbrg
                0x000000008801a190       0xfc drivers/serial/built-in.o
 .text.pl01x_serial_probe
                0x000000008801a28c       0x68 drivers/serial/built-in.o
 .text.fs_probe_unsupported
                0x000000008801a2f4       0x20 fs/built-in.o
 .text.fs_ls_unsupported
                0x000000008801a314        0x8 fs/built-in.o
 .text.fs_exists_unsupported
                0x000000008801a31c        0x8 fs/built-in.o
 .text.fs_size_unsupported
                0x000000008801a324        0x8 fs/built-in.o
 .text.fs_read_unsupported
                0x000000008801a32c        0x8 fs/built-in.o
 .text.fs_write_unsupported
                0x000000008801a334        0x8 fs/built-in.o
 .text.fs_close_unsupported
                0x000000008801a33c        0x4 fs/built-in.o
 .text.fs_uuid_unsupported
                0x000000008801a340        0x8 fs/built-in.o
 .text.fs_get_info
                0x000000008801a348       0x1c fs/built-in.o
 .text.fs_close
                0x000000008801a364       0x30 fs/built-in.o
 .text.fs_set_blk_dev
                0x000000008801a394       0xb8 fs/built-in.o
                0x000000008801a394                fs_set_blk_dev
 .text.fs_ls    0x000000008801a44c       0x44 fs/built-in.o
                0x000000008801a44c                fs_ls
 .text.fs_exists
                0x000000008801a490       0x40 fs/built-in.o
                0x000000008801a490                fs_exists
 .text.fs_size  0x000000008801a4d0       0x48 fs/built-in.o
                0x000000008801a4d0                fs_size
 .text.fs_read  0x000000008801a518       0x8c fs/built-in.o
                0x000000008801a518                fs_read
 .text.do_size  0x000000008801a5a4       0x6c fs/built-in.o
                0x000000008801a5a4                do_size
 .text.do_load  0x000000008801a610      0x208 fs/built-in.o
                0x000000008801a610                do_load
 .text.do_ls    0x000000008801a818       0x80 fs/built-in.o
                0x000000008801a818                do_ls
 .text.file_exists
                0x000000008801a898       0x3c fs/built-in.o
                0x000000008801a898                file_exists
 .text.downcase
                0x000000008801a8d4       0x30 fs/built-in.o
 .text.disk_read
                0x000000008801a904       0x58 fs/built-in.o
 .text.dirdelim
                0x000000008801a95c       0x34 fs/built-in.o
 .text.get_fatent
                0x000000008801a990      0x17c fs/built-in.o
 .text.mkcksum  0x000000008801ab0c       0x54 fs/built-in.o
 .text.get_cluster
                0x000000008801ab60      0x190 fs/built-in.o
 .text.get_name
                0x000000008801acf0       0xcc fs/built-in.o
 .text.read_bootsectandvi
                0x000000008801adbc      0x128 fs/built-in.o
 .text.slot2str
                0x000000008801aee4       0xac fs/built-in.o
 .text.get_vfatname
                0x000000008801af90      0x1e0 fs/built-in.o
 .text.fat_set_blk_dev
                0x000000008801b170       0xd0 fs/built-in.o
                0x000000008801b170                fat_set_blk_dev
 .text.do_fat_read_at
                0x000000008801b240      0xb6c fs/built-in.o
                0x000000008801b240                do_fat_read_at
 .text.do_fat_read
                0x000000008801bdac       0x1c fs/built-in.o
                0x000000008801bdac                do_fat_read
 .text.file_fat_detectfs
                0x000000008801bdc8       0x8c fs/built-in.o
                0x000000008801bdc8                file_fat_detectfs
 .text.file_fat_ls
                0x000000008801be54       0x24 fs/built-in.o
                0x000000008801be54                file_fat_ls
 .text.fat_exists
                0x000000008801be78       0x34 fs/built-in.o
                0x000000008801be78                fat_exists
 .text.fat_size
                0x000000008801beac       0x1c fs/built-in.o
                0x000000008801beac                fat_size
 .text.file_fat_read_at
                0x000000008801bec8       0x5c fs/built-in.o
                0x000000008801bec8                file_fat_read_at
 .text.fat_read_file
                0x000000008801bf24       0x48 fs/built-in.o
                0x000000008801bf24                fat_read_file
 .text.fat_close
                0x000000008801bf6c        0x4 fs/built-in.o
                0x000000008801bf6c                fat_close
 .text.efi_return_handle
                0x000000008801bf70        0xc lib/built-in.o
                0x000000008801bf70                efi_return_handle
 .text.efi_load_pe
                0x000000008801bf7c      0x2c0 lib/built-in.o
                0x000000008801bf7c                efi_load_pe
 .text.efi_search.isra.1.part.2
                0x000000008801c23c       0x5c lib/built-in.o
 .text.efi_save_gd
                0x000000008801c298        0xc lib/built-in.o
                0x000000008801c298                efi_save_gd
 .text.efi_restore_gd
                0x000000008801c2a4       0x24 lib/built-in.o
                0x000000008801c2a4                efi_restore_gd
 .text.efi_set_mem
                0x000000008801c2c8       0x38 lib/built-in.o
 .text.efi_copy_mem
                0x000000008801c300       0x2c lib/built-in.o
 .text.efi_allocate_pages_ext
                0x000000008801c32c       0x40 lib/built-in.o
                0x000000008801c32c                efi_allocate_pages_ext
 .text.efi_free_pages_ext
                0x000000008801c36c       0x30 lib/built-in.o
                0x000000008801c36c                efi_free_pages_ext
 .text.efi_get_memory_map_ext
                0x000000008801c39c       0x48 lib/built-in.o
                0x000000008801c39c                efi_get_memory_map_ext
 .text.efi_calculate_crc32
                0x000000008801c3e4       0x50 lib/built-in.o
 .text.efi_uninstall_multiple_protocol_interfaces
                0x000000008801c434       0x60 lib/built-in.o
 .text.efi_install_multiple_protocol_interfaces
                0x000000008801c494       0x60 lib/built-in.o
 .text.efi_locate_protocol
                0x000000008801c4f4       0x64 lib/built-in.o
 .text.efi_locate_handle_buffer
                0x000000008801c558       0x24 lib/built-in.o
 .text.efi_protocols_per_handle
                0x000000008801c57c       0x24 lib/built-in.o
 .text.efi_open_protocol_information
                0x000000008801c5a0       0x24 lib/built-in.o
 .text.efi_close_protocol
                0x000000008801c5c4       0x24 lib/built-in.o
 .text.efi_open_protocol
                0x000000008801c5e8       0xf0 lib/built-in.o
 .text.efi_handle_protocol
                0x000000008801c6d8       0x10 lib/built-in.o
 .text.efi_disconnect_controller
                0x000000008801c6e8       0x24 lib/built-in.o
 .text.efi_connect_controller
                0x000000008801c70c       0x24 lib/built-in.o
 .text.efi_set_watchdog_timer
                0x000000008801c730       0x20 lib/built-in.o
 .text.efi_stall
                0x000000008801c750       0x2c lib/built-in.o
 .text.efi_get_next_monotonic_count
                0x000000008801c77c       0x3c lib/built-in.o
 .text.efi_exit_boot_services
                0x000000008801c7b8       0x24 lib/built-in.o
 .text.efi_unload_image
                0x000000008801c7dc       0x70 lib/built-in.o
 .text.efi_exit
                0x000000008801c84c       0x20 lib/built-in.o
 .text.efi_start_image
                0x000000008801c86c       0x40 lib/built-in.o
 .text.efi_load_image
                0x000000008801c8ac       0xd8 lib/built-in.o
 .text.efi_install_configuration_table
                0x000000008801c984       0xd0 lib/built-in.o
 .text.efi_locate_device_path
                0x000000008801ca54       0x24 lib/built-in.o
 .text.efi_locate_handle
                0x000000008801ca78       0xf8 lib/built-in.o
 .text.efi_register_protocol_notify
                0x000000008801cb70       0x24 lib/built-in.o
 .text.efi_uninstall_protocol_interface
                0x000000008801cb94       0x24 lib/built-in.o
 .text.efi_reinstall_protocol_interface
                0x000000008801cbb8       0x20 lib/built-in.o
 .text.efi_install_protocol_interface
                0x000000008801cbd8       0x24 lib/built-in.o
 .text.efi_check_event
                0x000000008801cbfc       0x24 lib/built-in.o
 .text.efi_close_event
                0x000000008801cc20       0x2c lib/built-in.o
 .text.efi_signal_event
                0x000000008801cc4c       0x20 lib/built-in.o
 .text.efi_set_timer
                0x000000008801cc6c       0xc0 lib/built-in.o
 .text.efi_create_event
                0x000000008801cd2c       0x7c lib/built-in.o
 .text.efi_free_pool
                0x000000008801cda8       0x2c lib/built-in.o
 .text.efi_allocate_pool
                0x000000008801cdd4       0x50 lib/built-in.o
 .text.efi_restore_tpl
                0x000000008801ce24       0x1c lib/built-in.o
 .text.efi_raise_tpl
                0x000000008801ce40       0x20 lib/built-in.o
 .text.efi_exit_func
                0x000000008801ce60        0xc lib/built-in.o
                0x000000008801ce60                efi_exit_func
 .text.efi_timer_check
                0x000000008801ce6c       0x5c lib/built-in.o
                0x000000008801ce6c                efi_timer_check
 .text.efi_wait_for_event
                0x000000008801cec8       0x38 lib/built-in.o
 .text.efi_get_time
                0x000000008801cf00        0x8 lib/built-in.o
 .text.efi_reset_system
                0x000000008801cf08       0x3c lib/built-in.o
 .text.efi_runtime_relocate
                0x000000008801cf44      0x10c lib/built-in.o
                0x000000008801cf44                efi_runtime_relocate
 .text.efi_set_virtual_address_map
                0x000000008801d050       0xc8 lib/built-in.o
 .text.efi_cin_lock_std_in
                0x000000008801d118       0x18 lib/built-in.o
 .text.efi_cin_set_mode
                0x000000008801d130       0x18 lib/built-in.o
 .text.efi_cin_get_mode
                0x000000008801d148       0x48 lib/built-in.o
 .text.efi_cout_set_attribute
                0x000000008801d190       0x18 lib/built-in.o
 .text.efi_cout_test_string
                0x000000008801d1a8       0x18 lib/built-in.o
 .text.efi_cout_reset
                0x000000008801d1c0       0x18 lib/built-in.o
 .text.efi_cin_reset
                0x000000008801d1d8       0x18 lib/built-in.o
 .text.efi_cout_enable_cursor
                0x000000008801d1f0       0x40 lib/built-in.o
 .text.efi_cout_set_cursor_position
                0x000000008801d230       0x4c lib/built-in.o
 .text.efi_cout_clear_screen
                0x000000008801d27c       0x24 lib/built-in.o
 .text.efi_cout_output_string
                0x000000008801d2a0      0x114 lib/built-in.o
 .text.efi_cout_set_mode
                0x000000008801d3b4       0x28 lib/built-in.o
 .text.efi_cin_read_key_stroke
                0x000000008801d3dc      0x150 lib/built-in.o
 .text.efi_cout_query_mode
                0x000000008801d52c      0x154 lib/built-in.o
 .text.efi_mem_cmp
                0x000000008801d680       0x20 lib/built-in.o
 .text.efi_find_free_memory
                0x000000008801d6a0       0x74 lib/built-in.o
 .text.efi_add_memory_map
                0x000000008801d714      0x1c8 lib/built-in.o
                0x000000008801d714                efi_add_memory_map
 .text.efi_allocate_pages
                0x000000008801d8dc       0xa8 lib/built-in.o
                0x000000008801d8dc                efi_allocate_pages
 .text.efi_alloc
                0x000000008801d984       0x34 lib/built-in.o
                0x000000008801d984                efi_alloc
 .text.efi_free_pages
                0x000000008801d9b8        0x8 lib/built-in.o
                0x000000008801d9b8                efi_free_pages
 .text.efi_get_memory_map
                0x000000008801d9c0       0xa8 lib/built-in.o
                0x000000008801d9c0                efi_get_memory_map
 .text.efi_memory_init
                0x000000008801da68       0x98 lib/built-in.o
                0x000000008801da68                efi_memory_init
 .text.efi_disk_open_block
                0x000000008801db00       0x10 lib/built-in.o
 .text.efi_disk_open_dp
                0x000000008801db10       0x10 lib/built-in.o
 .text.efi_disk_flush_blocks
                0x000000008801db20       0x18 lib/built-in.o
 .text.efi_disk_reset
                0x000000008801db38       0x18 lib/built-in.o
 .text.efi_disk_rw_blocks.isra.4
                0x000000008801db50       0xb0 lib/built-in.o
 .text.efi_disk_write_blocks
                0x000000008801dc00       0x3c lib/built-in.o
 .text.efi_disk_read_blocks
                0x000000008801dc3c       0x3c lib/built-in.o
 .text.efi_disk_register
                0x000000008801dc78      0x204 lib/built-in.o
                0x000000008801dc78                efi_disk_register
 .text.efi_net_push
                0x000000008801de7c       0x10 lib/built-in.o
 .text.efi_net_open_dp
                0x000000008801de8c       0x10 lib/built-in.o
 .text.efi_net_open_pxe
                0x000000008801de9c       0x10 lib/built-in.o
 .text.efi_net_get_status
                0x000000008801deac       0x44 lib/built-in.o
 .text.efi_net_nvdata
                0x000000008801def0       0x1c lib/built-in.o
 .text.efi_net_mcastiptomac
                0x000000008801df0c       0x1c lib/built-in.o
 .text.efi_net_statistics
                0x000000008801df28       0x1c lib/built-in.o
 .text.efi_net_station_address
                0x000000008801df44       0x1c lib/built-in.o
 .text.efi_net_receive_filters
                0x000000008801df60       0x18 lib/built-in.o
 .text.efi_net_shutdown
                0x000000008801df78       0x18 lib/built-in.o
 .text.efi_net_reset
                0x000000008801df90       0x18 lib/built-in.o
 .text.efi_net_stop
                0x000000008801dfa8       0x18 lib/built-in.o
 .text.efi_net_start
                0x000000008801dfc0       0x18 lib/built-in.o
 .text.efi_net_initialize
                0x000000008801dfd8       0x1c lib/built-in.o
 .text.efi_net_receive
                0x000000008801dff4       0xa0 lib/built-in.o
 .text.efi_net_transmit
                0x000000008801e094       0x58 lib/built-in.o
 .text.efi_net_set_dhcp_ack
                0x000000008801e0ec       0x54 lib/built-in.o
                0x000000008801e0ec                efi_net_set_dhcp_ack
 .text.efi_net_register
                0x000000008801e140      0x234 lib/built-in.o
                0x000000008801e140                efi_net_register
 .text.zcalloc  0x000000008801e374        0x8 lib/built-in.o
                0x000000008801e374                zcalloc
 .text.zcfree   0x000000008801e37c        0x8 lib/built-in.o
                0x000000008801e37c                zcfree
 .text.inflate_fast
                0x000000008801e384      0x550 lib/built-in.o
                0x000000008801e384                inflate_fast
 .text.inflate_table
                0x000000008801e8d4      0x470 lib/built-in.o
                0x000000008801e8d4                inflate_table
 .text.inflateReset
                0x000000008801ed44       0x70 lib/built-in.o
                0x000000008801ed44                inflateReset
 .text.inflateInit2_
                0x000000008801edb4      0x104 lib/built-in.o
                0x000000008801edb4                inflateInit2_
 .text.inflateEnd
                0x000000008801eeb8       0x64 lib/built-in.o
                0x000000008801eeb8                inflateEnd
 .text.adler32  0x000000008801ef1c      0x2dc lib/built-in.o
                0x000000008801ef1c                adler32
 .text.inflate  0x000000008801f1f8     0x1424 lib/built-in.o
                0x000000008801f1f8                inflate
 .text.crc16_ccitt
                0x000000008802061c       0x38 lib/built-in.o
                0x000000008802061c                crc16_ccitt
 .text.gzalloc  0x0000000088020654       0x10 lib/built-in.o
                0x0000000088020654                gzalloc
 .text.gzfree   0x0000000088020664        0x8 lib/built-in.o
                0x0000000088020664                gzfree
 .text.gzwrite_progress_init
                0x000000008802066c        0x8 lib/built-in.o
                0x000000008802066c                gzwrite_progress_init
 .text.gzwrite_progress
                0x0000000088020674       0x18 lib/built-in.o
                0x0000000088020674                gzwrite_progress
 .text.gzwrite_progress_finish
                0x000000008802068c       0x28 lib/built-in.o
                0x000000008802068c                gzwrite_progress_finish
 .text.gzwrite  0x00000000880206b4      0x3e4 lib/built-in.o
                0x00000000880206b4                gzwrite
 .text.zunzip   0x0000000088020a98      0x11c lib/built-in.o
                0x0000000088020a98                zunzip
 .text.gunzip   0x0000000088020bb4       0xa4 lib/built-in.o
                0x0000000088020bb4                gunzip
 .text.initcall_run_list
                0x0000000088020c58       0x7c lib/built-in.o
                0x0000000088020c58                initcall_run_list
 .text.lmb_add_region
                0x0000000088020cd4      0x1a8 lib/built-in.o
 .text.lmb_init
                0x0000000088020e7c       0x28 lib/built-in.o
                0x0000000088020e7c                lmb_init
 .text.lmb_add  0x0000000088020ea4        0x4 lib/built-in.o
                0x0000000088020ea4                lmb_add
 .text.lmb_free
                0x0000000088020ea8       0xf4 lib/built-in.o
                0x0000000088020ea8                lmb_free
 .text.lmb_reserve
                0x0000000088020f9c        0x8 lib/built-in.o
                0x0000000088020f9c                lmb_reserve
 .text.__lmb_alloc_base
                0x0000000088020fa4      0x11c lib/built-in.o
                0x0000000088020fa4                __lmb_alloc_base
 .text.lmb_alloc_base
                0x00000000880210c0       0x4c lib/built-in.o
                0x00000000880210c0                lmb_alloc_base
 .text.lmb_alloc
                0x000000008802110c        0x8 lib/built-in.o
                0x000000008802110c                lmb_alloc
 .text.board_lmb_reserve
                0x0000000088021114        0x4 lib/built-in.o
                0x0000000088021114                board_lmb_reserve
 .text.string_to_ip
                0x0000000088021118       0x74 lib/built-in.o
                0x0000000088021118                string_to_ip
 .text.qsort    0x000000008802118c       0xf0 lib/built-in.o
                0x000000008802118c                qsort
 .text.merge    0x000000008802127c       0x84 lib/built-in.o
 .text.list_sort
                0x0000000088021300      0x1ac lib/built-in.o
                0x0000000088021300                list_sort
 .text.fdt_check_header
                0x00000000880214ac       0x70 lib/built-in.o
                0x00000000880214ac                fdt_check_header
 .text.fdt_offset_ptr
                0x000000008802151c       0x4c lib/built-in.o
                0x000000008802151c                fdt_offset_ptr
 .text.fdt_next_tag
                0x0000000088021568       0xf8 lib/built-in.o
                0x0000000088021568                fdt_next_tag
 .text._fdt_check_node_offset
                0x0000000088021660       0x3c lib/built-in.o
                0x0000000088021660                _fdt_check_node_offset
 .text._fdt_check_prop_offset
                0x000000008802169c       0x3c lib/built-in.o
                0x000000008802169c                _fdt_check_prop_offset
 .text.fdt_next_node
                0x00000000880216d8       0xbc lib/built-in.o
                0x00000000880216d8                fdt_next_node
 .text._fdt_find_string
                0x0000000088021794       0x74 lib/built-in.o
                0x0000000088021794                _fdt_find_string
 .text.fdt_move
                0x0000000088021808       0x68 lib/built-in.o
                0x0000000088021808                fdt_move
 .text.fdt_path_next_seperator
                0x0000000088021870       0x64 lib/built-in.o
 .text._nextprop
                0x00000000880218d4       0x68 lib/built-in.o
 .text.fdt_string
                0x000000008802193c       0x14 lib/built-in.o
                0x000000008802193c                fdt_string
 .text.fdt_get_mem_rsv
                0x0000000088021950       0x60 lib/built-in.o
                0x0000000088021950                fdt_get_mem_rsv
 .text.fdt_num_mem_rsv
                0x00000000880219b0       0x2c lib/built-in.o
                0x00000000880219b0                fdt_num_mem_rsv
 .text.fdt_subnode_offset_namelen
                0x00000000880219dc       0xe0 lib/built-in.o
                0x00000000880219dc                fdt_subnode_offset_namelen
 .text.fdt_subnode_offset
                0x0000000088021abc       0x3c lib/built-in.o
                0x0000000088021abc                fdt_subnode_offset
 .text.fdt_get_name
                0x0000000088021af8       0x80 lib/built-in.o
                0x0000000088021af8                fdt_get_name
 .text.fdt_first_property_offset
                0x0000000088021b78       0x38 lib/built-in.o
                0x0000000088021b78                fdt_first_property_offset
 .text.fdt_next_property_offset
                0x0000000088021bb0       0x38 lib/built-in.o
                0x0000000088021bb0                fdt_next_property_offset
 .text.fdt_get_property_by_offset
                0x0000000088021be8       0x6c lib/built-in.o
                0x0000000088021be8                fdt_get_property_by_offset
 .text.fdt_get_property_namelen
                0x0000000088021c54       0xd0 lib/built-in.o
                0x0000000088021c54                fdt_get_property_namelen
 .text.fdt_get_property
                0x0000000088021d24       0x48 lib/built-in.o
                0x0000000088021d24                fdt_get_property
 .text.fdt_getprop_namelen
                0x0000000088021d6c       0x20 lib/built-in.o
                0x0000000088021d6c                fdt_getprop_namelen
 .text.fdt_getprop_by_offset
                0x0000000088021d8c       0x58 lib/built-in.o
                0x0000000088021d8c                fdt_getprop_by_offset
 .text.fdt_getprop
                0x0000000088021de4       0x48 lib/built-in.o
                0x0000000088021de4                fdt_getprop
 .text.fdt_get_alias_namelen
                0x0000000088021e2c       0x5c lib/built-in.o
                0x0000000088021e2c                fdt_get_alias_namelen
 .text.fdt_path_offset
                0x0000000088021e88      0x100 lib/built-in.o
                0x0000000088021e88                fdt_path_offset
 .text.fdt_supernode_atdepth_offset
                0x0000000088021f88       0xb8 lib/built-in.o
                0x0000000088021f88                fdt_supernode_atdepth_offset
 .text.fdt_node_depth
                0x0000000088022040       0x34 lib/built-in.o
                0x0000000088022040                fdt_node_depth
 .text._fdt_blocks_misordered
                0x0000000088022074       0x60 lib/built-in.o
 .text._fdt_splice
                0x00000000880220d4       0x84 lib/built-in.o
 .text._fdt_splice_mem_rsv
                0x0000000088022158       0x6c lib/built-in.o
 .text._fdt_splice_struct
                0x00000000880221c4       0x60 lib/built-in.o
 .text._fdt_packblocks
                0x0000000088022224       0xcc lib/built-in.o
 .text._fdt_find_add_string
                0x00000000880222f0       0xc0 lib/built-in.o
 .text._fdt_add_property
                0x00000000880223b0       0xa8 lib/built-in.o
 .text._fdt_rw_check_header
                0x0000000088022458       0x68 lib/built-in.o
 .text.fdt_add_mem_rsv
                0x00000000880224c0       0x7c lib/built-in.o
                0x00000000880224c0                fdt_add_mem_rsv
 .text.fdt_del_mem_rsv
                0x000000008802253c       0x70 lib/built-in.o
                0x000000008802253c                fdt_del_mem_rsv
 .text.fdt_setprop
                0x00000000880225ac       0xd8 lib/built-in.o
                0x00000000880225ac                fdt_setprop
 .text.fdt_delprop
                0x0000000088022684       0x6c lib/built-in.o
                0x0000000088022684                fdt_delprop
 .text.fdt_add_subnode_namelen
                0x00000000880226f0      0x120 lib/built-in.o
                0x00000000880226f0                fdt_add_subnode_namelen
 .text.fdt_add_subnode
                0x0000000088022810       0x3c lib/built-in.o
                0x0000000088022810                fdt_add_subnode
 .text.fdt_del_node
                0x000000008802284c       0x60 lib/built-in.o
                0x000000008802284c                fdt_del_node
 .text.fdt_open_into
                0x00000000880228ac      0x1b4 lib/built-in.o
                0x00000000880228ac                fdt_open_into
 .text.fdt_strerror
                0x0000000088022a60       0x50 lib/built-in.o
                0x0000000088022a60                fdt_strerror
 .text._fdt_node_end_offset
                0x0000000088022ab0       0x48 lib/built-in.o
                0x0000000088022ab0                _fdt_node_end_offset
 .text.fdt_address_cells
                0x0000000088022af8       0x54 lib/built-in.o
                0x0000000088022af8                fdt_address_cells
 .text.fdt_size_cells
                0x0000000088022b4c       0x50 lib/built-in.o
                0x0000000088022b4c                fdt_size_cells
 .text.cmpkey   0x0000000088022b9c       0x14 lib/built-in.o
 .text._hdelete.isra.1
                0x0000000088022bb0       0x64 lib/built-in.o
 .text.drop_var_from_set.part.2
                0x0000000088022c14       0x68 lib/built-in.o
 .text.match_string
                0x0000000088022c7c       0xdc lib/built-in.o
 .text.match_entry
                0x0000000088022d58       0xdc lib/built-in.o
 .text.hcreate_r
                0x0000000088022e34       0xa0 lib/built-in.o
                0x0000000088022e34                hcreate_r
 .text.hdestroy_r
                0x0000000088022ed4       0x88 lib/built-in.o
                0x0000000088022ed4                hdestroy_r
 .text.hsearch_r
                0x0000000088022f5c      0x414 lib/built-in.o
                0x0000000088022f5c                hsearch_r
 .text.hdelete_r
                0x0000000088023370       0xe0 lib/built-in.o
                0x0000000088023370                hdelete_r
 .text.hexport_r
                0x0000000088023450      0x2a8 lib/built-in.o
                0x0000000088023450                hexport_r
 .text.himport_r
                0x00000000880236f8      0x3c8 lib/built-in.o
                0x00000000880236f8                himport_r
 .text.hwalk_r  0x0000000088023ac0       0x70 lib/built-in.o
                0x0000000088023ac0                hwalk_r
 .text.display_options
                0x0000000088023b30       0x28 lib/built-in.o
                0x0000000088023b30                display_options
 .text.print_size
                0x0000000088023b58       0xe8 lib/built-in.o
                0x0000000088023b58                print_size
 .text.print_buffer
                0x0000000088023c40      0x204 lib/built-in.o
                0x0000000088023c40                print_buffer
 .text.crc32_no_comp
                0x0000000088023e44       0xe0 lib/built-in.o
                0x0000000088023e44                crc32_no_comp
 .text.crc32    0x0000000088023f24       0x1c lib/built-in.o
                0x0000000088023f24                crc32
 .text.crc32_wd
                0x0000000088023f40        0x4 lib/built-in.o
                0x0000000088023f40                crc32_wd
 .text.__div64_32
                0x0000000088023f44       0x70 lib/built-in.o
                0x0000000088023f44                __div64_32
 .text.hang     0x0000000088023fb4       0x20 lib/built-in.o
                0x0000000088023fb4                hang
 .text.skip_spaces
                0x0000000088023fd4       0x20 lib/built-in.o
                0x0000000088023fd4                skip_spaces
 .text.strim    0x0000000088023ff4       0x60 lib/built-in.o
                0x0000000088023ff4                strim
 .text.emit     0x0000000088024054       0x2c lib/built-in.o
 .text.store_char_in_data
                0x0000000088024080       0x30 lib/built-in.o
 .text.get_escape_char
                0x00000000880240b0       0x70 lib/built-in.o
 .text.match    0x0000000088024120      0x40c lib/built-in.o
 .text.loop_greedy
                0x000000008802452c       0xb4 lib/built-in.o
 .text.loop_non_greedy
                0x00000000880245e0       0xa0 lib/built-in.o
 .text.fixup_branch.part.0
                0x0000000088024680       0x50 lib/built-in.o
 .text.quantifier
                0x00000000880246d0       0xe4 lib/built-in.o
 .text.compile  0x00000000880247b4      0x3e8 lib/built-in.o
 .text.slre_compile
                0x0000000088024b9c       0xc4 lib/built-in.o
                0x0000000088024b9c                slre_compile
 .text.slre_match
                0x0000000088024c60       0x9c lib/built-in.o
                0x0000000088024c60                slre_match
 .text.strcpy   0x0000000088024cfc       0x18 lib/built-in.o
                0x0000000088024cfc                strcpy
 .text.strncpy  0x0000000088024d14       0x20 lib/built-in.o
                0x0000000088024d14                strncpy
 .text.strcat   0x0000000088024d34       0x2c lib/built-in.o
                0x0000000088024d34                strcat
 .text.strncat  0x0000000088024d60       0x40 lib/built-in.o
                0x0000000088024d60                strncat
 .text.strcmp   0x0000000088024da0       0x28 lib/built-in.o
                0x0000000088024da0                strcmp
 .text.strncmp  0x0000000088024dc8       0x38 lib/built-in.o
                0x0000000088024dc8                strncmp
 .text.strchr   0x0000000088024e00       0x24 lib/built-in.o
                0x0000000088024e00                strchr
 .text.strlen   0x0000000088024e24       0x1c lib/built-in.o
                0x0000000088024e24                strlen
 .text.strrchr  0x0000000088024e40       0x54 lib/built-in.o
                0x0000000088024e40                strrchr
 .text.strnlen  0x0000000088024e94       0x28 lib/built-in.o
                0x0000000088024e94                strnlen
 .text.strdup   0x0000000088024ebc       0x4c lib/built-in.o
                0x0000000088024ebc                strdup
 .text.memset   0x0000000088024f08       0x70 lib/built-in.o
                0x0000000088024f08                memset
 .text.memcpy   0x0000000088024f78       0x60 lib/built-in.o
                0x0000000088024f78                memcpy
 .text.strlcpy  0x0000000088024fd8       0x64 lib/built-in.o
                0x0000000088024fd8                strlcpy
 .text.memmove  0x000000008802503c       0x48 lib/built-in.o
                0x000000008802503c                memmove
 .text.memcmp   0x0000000088025084       0x30 lib/built-in.o
                0x0000000088025084                memcmp
 .text.strstr   0x00000000880250b4       0x8c lib/built-in.o
                0x00000000880250b4                strstr
 .text.memchr   0x0000000088025140       0x30 lib/built-in.o
                0x0000000088025140                memchr
 .text.tick_to_time
                0x0000000088025170       0x4c lib/built-in.o
 .text.get_ticks
                0x00000000880251bc       0x3c lib/built-in.o
                0x00000000880251bc                get_ticks
 .text.timer_init
                0x00000000880251f8        0x8 lib/built-in.o
                0x00000000880251f8                timer_init
 .text.get_timer
                0x0000000088025200       0x28 lib/built-in.o
                0x0000000088025200                get_timer
 .text.timer_get_us
                0x0000000088025228       0x1c lib/built-in.o
                0x0000000088025228                timer_get_us
 .text.__udelay
                0x0000000088025244       0x7c lib/built-in.o
                0x0000000088025244                __udelay
 .text.udelay   0x00000000880252c0       0x44 lib/built-in.o
                0x00000000880252c0                udelay
 .text.mdelay   0x0000000088025304       0x30 lib/built-in.o
                0x0000000088025304                mdelay
 .text.uuid_str_valid
                0x0000000088025334       0x8c lib/built-in.o
                0x0000000088025334                uuid_str_valid
 .text.uuid_str_to_bin
                0x00000000880253c0      0x1a4 lib/built-in.o
                0x00000000880253c0                uuid_str_to_bin
 .text.put_dec_trunc
                0x0000000088025564       0xdc lib/built-in.o
 .text.string   0x0000000088025640       0xd8 lib/built-in.o
 .text.put_dec  0x0000000088025718      0x140 lib/built-in.o
 .text.number   0x0000000088025858      0x2d4 lib/built-in.o
 .text.vsnprintf_internal
                0x0000000088025b2c      0x8a4 lib/built-in.o
 .text.vscnprintf
                0x00000000880263d0       0x74 lib/built-in.o
                0x00000000880263d0                vscnprintf
 .text.snprintf
                0x0000000088026444       0x88 lib/built-in.o
                0x0000000088026444                snprintf
 .text.vsprintf
                0x00000000880264cc       0x44 lib/built-in.o
                0x00000000880264cc                vsprintf
 .text.sprintf  0x0000000088026510       0x84 lib/built-in.o
                0x0000000088026510                sprintf
 .text.printf   0x0000000088026594       0xd4 lib/built-in.o
                0x0000000088026594                printf
 .text.vprintf  0x0000000088026668       0x54 lib/built-in.o
                0x0000000088026668                vprintf
 .text.simple_itoa
                0x00000000880266bc       0x40 lib/built-in.o
                0x00000000880266bc                simple_itoa
 .text.panic_finish
                0x00000000880266fc       0x34 lib/built-in.o
 .text.panic_str
                0x0000000088026730       0x10 lib/built-in.o
                0x0000000088026730                panic_str
 .text.panic    0x0000000088026740       0x84 lib/built-in.o
                0x0000000088026740                panic
 .text.simple_strtoul
                0x00000000880267c4       0xd4 lib/built-in.o
                0x00000000880267c4                simple_strtoul
 .text.strict_strtoul
                0x0000000088026898       0x8c lib/built-in.o
                0x0000000088026898                strict_strtoul
 .text.simple_strtol
                0x0000000088026924       0x30 lib/built-in.o
                0x0000000088026924                simple_strtol
 .text.ustrtoul
                0x0000000088026954       0x88 lib/built-in.o
                0x0000000088026954                ustrtoul
 .text.simple_strtoull
                0x00000000880269dc       0xd4 lib/built-in.o
                0x00000000880269dc                simple_strtoull
 .text.ustrtoull
                0x0000000088026ab0       0x88 lib/built-in.o
                0x0000000088026ab0                ustrtoull
 .text.trailing_strtoln
                0x0000000088026b38       0x6c lib/built-in.o
                0x0000000088026b38                trailing_strtoln
 .text.trailing_strtol
                0x0000000088026ba4        0x8 lib/built-in.o
                0x0000000088026ba4                trailing_strtol
 .text.compute_ip_checksum
                0x0000000088026bac       0x5c net/built-in.o
                0x0000000088026bac                compute_ip_checksum
 .text.ip_checksum_ok
                0x0000000088026c08       0x1c net/built-in.o
                0x0000000088026c08                ip_checksum_ok
 .text.arp_init
                0x0000000088026c24       0x3c net/built-in.o
                0x0000000088026c24                arp_init
 .text.arp_raw_request
                0x0000000088026c60       0xe0 net/built-in.o
                0x0000000088026c60                arp_raw_request
 .text.arp_request
                0x0000000088026d40       0x84 net/built-in.o
                0x0000000088026d40                arp_request
 .text.arp_timeout_check
                0x0000000088026dc4       0x90 net/built-in.o
                0x0000000088026dc4                arp_timeout_check
 .text.arp_receive
                0x0000000088026e54      0x204 net/built-in.o
                0x0000000088026e54                arp_receive
 .text.dhcp_extended
                0x0000000088027058      0x258 net/built-in.o
 .text.dhcp_process_options
                0x00000000880272b0      0x224 net/built-in.o
 .text.dhcp_packet_process_options
                0x00000000880274d4       0x88 net/built-in.o
 .text.dhcp_handler
                0x000000008802755c      0x3c4 net/built-in.o
 .text.bootp_reset
                0x0000000088027920       0x3c net/built-in.o
                0x0000000088027920                bootp_reset
 .text.bootp_request
                0x000000008802795c      0x270 net/built-in.o
                0x000000008802795c                bootp_request
 .text.bootp_timeout_handler
                0x0000000088027bcc       0x6c net/built-in.o
 .text.dhcp_request
                0x0000000088027c38        0x4 net/built-in.o
                0x0000000088027c38                dhcp_request
 .text.__def_eth_init
                0x0000000088027c3c        0x8 net/built-in.o
                0x0000000088027c3c                cpu_eth_init
 .text.on_ethaddr
                0x0000000088027c44       0xa8 net/built-in.o
 .text.eth_set_current_to_next
                0x0000000088027cec       0x14 net/built-in.o
                0x0000000088027cec                eth_set_current_to_next
 .text.eth_set_dev
                0x0000000088027d00        0xc net/built-in.o
                0x0000000088027d00                eth_set_dev
 .text.eth_get_dev_by_name
                0x0000000088027d0c       0x90 net/built-in.o
                0x0000000088027d0c                eth_get_dev_by_name
 .text.eth_get_dev_by_index
                0x0000000088027d9c       0x38 net/built-in.o
                0x0000000088027d9c                eth_get_dev_by_index
 .text.eth_get_dev_index
                0x0000000088027dd4       0x18 net/built-in.o
                0x0000000088027dd4                eth_get_dev_index
 .text.eth_write_hwaddr
                0x0000000088027dec      0x200 net/built-in.o
                0x0000000088027dec                eth_write_hwaddr
 .text.eth_register
                0x0000000088027fec       0x80 net/built-in.o
                0x0000000088027fec                eth_register
 *fill*         0x000000008802806c        0x4 
 .text.eth_initialize
                0x0000000088028070      0x1a8 net/built-in.o
                0x0000000088028070                eth_initialize
 .text.eth_init
                0x0000000088028218       0x84 net/built-in.o
                0x0000000088028218                eth_init
 .text.eth_halt
                0x000000008802829c       0x38 net/built-in.o
                0x000000008802829c                eth_halt
 .text.eth_send
                0x00000000880282d4       0x28 net/built-in.o
                0x00000000880282d4                eth_send
 .text.eth_rx   0x00000000880282fc       0x1c net/built-in.o
                0x00000000880282fc                eth_rx
 .text.eth_parse_enetaddr
                0x0000000088028318       0x6c net/built-in.o
                0x0000000088028318                eth_parse_enetaddr
 .text.eth_getenv_enetaddr
                0x0000000088028384       0x68 net/built-in.o
                0x0000000088028384                eth_getenv_enetaddr
 .text.eth_setenv_enetaddr
                0x00000000880283ec       0x3c net/built-in.o
                0x00000000880283ec                eth_setenv_enetaddr
 .text.eth_getenv_enetaddr_by_index
                0x0000000088028428       0x50 net/built-in.o
                0x0000000088028428                eth_getenv_enetaddr_by_index
 .text.eth_setenv_enetaddr_by_index
                0x0000000088028478       0x50 net/built-in.o
                0x0000000088028478                eth_setenv_enetaddr_by_index
 .text.eth_common_init
                0x00000000880284c8       0x18 net/built-in.o
                0x00000000880284c8                eth_common_init
 .text.eth_mac_skip
                0x00000000880284e0       0x44 net/built-in.o
                0x00000000880284e0                eth_mac_skip
 .text.eth_get_name
                0x0000000088028524       0x18 net/built-in.o
                0x0000000088028524                eth_get_name
 .text.eth_current_changed
                0x000000008802853c       0x9c net/built-in.o
                0x000000008802853c                eth_current_changed
 .text.eth_try_another
                0x00000000880285d8       0x8c net/built-in.o
                0x00000000880285d8                eth_try_another
 .text.eth_set_current
                0x0000000088028664       0x88 net/built-in.o
                0x0000000088028664                eth_set_current
 .text.start_again_timeout_handler
                0x00000000880286ec       0x10 net/built-in.o
 .text.dummy_handler
                0x00000000880286fc        0x4 net/built-in.o
 .text.on_ipaddr
                0x0000000088028700       0x28 net/built-in.o
 .text.on_gatewayip
                0x0000000088028728       0x28 net/built-in.o
 .text.on_netmask
                0x0000000088028750       0x28 net/built-in.o
 .text.on_serverip
                0x0000000088028778       0x28 net/built-in.o
 .text.net_init_loop
                0x00000000880287a0       0x24 net/built-in.o
 .text.net_clear_handlers
                0x00000000880287c4       0x24 net/built-in.o
 .text.net_auto_load
                0x00000000880287e8       0x38 net/built-in.o
                0x00000000880287e8                net_auto_load
 .text.net_init
                0x0000000088028820       0x74 net/built-in.o
                0x0000000088028820                net_init
 .text.net_start_again
                0x0000000088028894      0x148 net/built-in.o
                0x0000000088028894                net_start_again
 .text.net_loop
                0x00000000880289dc      0x320 net/built-in.o
                0x00000000880289dc                net_loop
 .text.net_set_udp_handler
                0x0000000088028cfc       0x18 net/built-in.o
                0x0000000088028cfc                net_set_udp_handler
 .text.net_get_arp_handler
                0x0000000088028d14        0xc net/built-in.o
                0x0000000088028d14                net_get_arp_handler
 .text.net_set_timeout_handler
                0x0000000088028d20       0x54 net/built-in.o
                0x0000000088028d20                net_set_timeout_handler
 .text.net_process_received_packet
                0x0000000088028d74      0x280 net/built-in.o
                0x0000000088028d74                net_process_received_packet
 .text.net_eth_hdr_size
                0x0000000088028ff4       0x38 net/built-in.o
                0x0000000088028ff4                net_eth_hdr_size
 .text.net_set_ether
                0x000000008802902c       0xac net/built-in.o
                0x000000008802902c                net_set_ether
 .text.net_update_ether
                0x00000000880290d8       0x8c net/built-in.o
                0x00000000880290d8                net_update_ether
 .text.net_set_ip_header
                0x0000000088029164       0x8c net/built-in.o
                0x0000000088029164                net_set_ip_header
 .text.net_set_udp_header
                0x00000000880291f0       0x9c net/built-in.o
                0x00000000880291f0                net_set_udp_header
 .text.net_send_udp_packet
                0x000000008802928c      0x10c net/built-in.o
                0x000000008802928c                net_send_udp_packet
 .text.copy_filename
                0x0000000088029398       0x44 net/built-in.o
                0x0000000088029398                copy_filename
 .text.on_bootfile
                0x00000000880293dc       0x34 net/built-in.o
 .text.ip_to_string
                0x0000000088029410       0x28 net/built-in.o
                0x0000000088029410                ip_to_string
 .text.string_to_vlan
                0x0000000088029438       0x4c net/built-in.o
                0x0000000088029438                string_to_vlan
 .text.on_nvlan
                0x0000000088029484       0x28 net/built-in.o
 .text.on_vlan  0x00000000880294ac       0x28 net/built-in.o
 .text.ping_timeout_handler
                0x00000000880294d4       0x20 net/built-in.o
 .text.ping_start
                0x00000000880294f4      0x114 net/built-in.o
                0x00000000880294f4                ping_start
 .text.ping_receive
                0x0000000088029608       0xf0 net/built-in.o
                0x0000000088029608                ping_receive
 .text.tftp_send
                0x00000000880296f8      0x1a8 net/built-in.o
 .text.tftp_handler
                0x00000000880298a0      0x394 net/built-in.o
 .text.tftp_timeout_handler
                0x0000000088029c34       0x84 net/built-in.o
 .text.tftp_start
                0x0000000088029cb8      0x340 net/built-in.o
                0x0000000088029cb8                tftp_start
 .text.do_dm_dump_devres
                0x0000000088029ff8        0x8 test/dm/built-in.o
 .text.do_dm    0x000000008802a000       0x8c test/dm/built-in.o
 .text.do_dm_dump_uclass
                0x000000008802a08c       0x18 test/dm/built-in.o
 .text.do_dm_dump_all
                0x000000008802a0a4       0x18 test/dm/built-in.o
                0x000000008802a0c0                . = ALIGN (0x8)

.rodata         0x000000008802a0c0     0xa583
 *(SORT(.rodata*))
 .rodata        0x000000008802a0c0       0x35 cmd/built-in.o
 *fill*         0x000000008802a0f5        0x3 
 .rodata.CSWTCH.18
                0x000000008802a0f8       0x18 common/built-in.o
 .rodata.CSWTCH.24
                0x000000008802a110       0x40 common/built-in.o
 .rodata.__FUNCTION__.5634
                0x000000008802a150       0x18 net/built-in.o
 .rodata.__FUNCTION__.6789
                0x000000008802a168       0x18 common/built-in.o
 .rodata.__func__.5289
                0x000000008802a180       0x10 common/built-in.o
 .rodata.__func__.5305
                0x000000008802a190       0x10 common/built-in.o
 .rodata.__func__.5312
                0x000000008802a1a0       0x10 common/built-in.o
 .rodata.__func__.5341
                0x000000008802a1b0        0x8 lib/built-in.o
 .rodata.__func__.5660
                0x000000008802a1b8       0x10 cmd/built-in.o
 .rodata.__func__.5697
                0x000000008802a1c8       0x10 cmd/built-in.o
 .rodata.__func__.5988
                0x000000008802a1d8       0x10 common/built-in.o
 .rodata.__func__.6064
                0x000000008802a1e8       0x10 lib/built-in.o
 .rodata.__func__.6666
                0x000000008802a1f8       0x18 common/built-in.o
 .rodata.__func__.6867
                0x000000008802a210       0x10 drivers/built-in.o
 .rodata.__func__.7216
                0x000000008802a220       0x10 drivers/built-in.o
 .rodata.__func__.7222
                0x000000008802a230       0x18 drivers/built-in.o
 .rodata.__func__.7234
                0x000000008802a248       0x10 drivers/built-in.o
 .rodata.__func__.7238
                0x000000008802a258       0x18 drivers/built-in.o
 .rodata._ctype
                0x000000008802a270      0x100 lib/built-in.o
                0x000000008802a270                _ctype
 .rodata.boot_os
                0x000000008802a370       0xc0 common/built-in.o
 .rodata.crc16_tab
                0x000000008802a430      0x200 lib/built-in.o
 .rodata.crc_table
                0x000000008802a630      0x400 lib/built-in.o
 .rodata.dbase.5450
                0x000000008802aa30       0x40 lib/built-in.o
 .rodata.default_environment
                0x000000008802aa70      0x170 common/built-in.o
                0x000000008802aa70                default_environment
 .rodata.desc_and_len_tbl
                0x000000008802abe0       0x60 cmd/built-in.o
 .rodata.dext.5451
                0x000000008802ac40       0x40 lib/built-in.o
 .rodata.digits.5104
                0x000000008802ac80       0x10 lib/built-in.o
 .rodata.distfix
                0x000000008802ac90       0x80 lib/built-in.o
 .rodata.efi_block_io_guid
                0x000000008802ad10       0x10 lib/built-in.o
 .rodata.efi_boot_services
                0x000000008802ad20      0x178 lib/built-in.o
 .rodata.efi_con_in
                0x000000008802ae98       0x18 lib/built-in.o
                0x000000008802ae98                efi_con_in
 .rodata.efi_con_out
                0x000000008802aeb0       0x50 lib/built-in.o
                0x000000008802aeb0                efi_con_out
 .rodata.efi_console_control
                0x000000008802af00       0x18 lib/built-in.o
                0x000000008802af00                efi_console_control
 .rodata.efi_guid_console_control
                0x000000008802af18       0x10 lib/built-in.o
                0x000000008802af18                efi_guid_console_control
 .rodata.efi_guid_device_path
                0x000000008802af28       0x10 lib/built-in.o
                0x000000008802af28                efi_guid_device_path
 .rodata.efi_guid_loaded_image
                0x000000008802af38       0x10 lib/built-in.o
                0x000000008802af38                efi_guid_loaded_image
 .rodata.efi_net_guid
                0x000000008802af48       0x10 lib/built-in.o
 .rodata.efi_pxe_guid
                0x000000008802af58       0x10 lib/built-in.o
 .rodata.efi_runtime_detach_list
                0x000000008802af68       0x70 lib/built-in.o
 .rodata.env_flags_varaccess_mask
                0x000000008802afd8       0x10 common/built-in.o
 .rodata.env_flags_varaccess_rep
                0x000000008802afe8        0x8 common/built-in.o
 .rodata.env_flags_vartype_rep
                0x000000008802aff0        0x8 common/built-in.o
 .rodata.erase_seq
                0x000000008802aff8        0x8 common/built-in.o
 .rodata.fdt_errtable
                0x000000008802b000       0x68 lib/built-in.o
 .rodata.flash_offset_cfi
                0x000000008802b068        0x8 drivers/mtd/built-in.o
 .rodata.hex_asc
                0x000000008802b070       0x18 lib/built-in.o
 .rodata.keywords
                0x000000008802b088      0x130 cmd/built-in.o
 .rodata.lbase.5448
                0x000000008802b1b8       0x40 lib/built-in.o
 .rodata.lenfix
                0x000000008802b1f8      0x800 lib/built-in.o
 .rodata.lext.5449
                0x000000008802b9f8       0x40 lib/built-in.o
 .rodata.names.5257
                0x000000008802ba38        0x8 lib/built-in.o
 .rodata.net_bcast_ethaddr
                0x000000008802ba40        0x8 net/built-in.o
                0x000000008802ba40                net_bcast_ethaddr
 .rodata.op_adv
                0x000000008802ba48      0x180 cmd/built-in.o
                0x000000008802ba48                op_adv
 .rodata.order.5544
                0x000000008802bbc8       0x28 lib/built-in.o
 .rodata.pl01x_serial_ops
                0x000000008802bbf0       0x28 drivers/serial/built-in.o
 .rodata.reg_0_5_desc_tbl
                0x000000008802bc18       0x60 cmd/built-in.o
 .rodata.reg_0_desc_tbl
                0x000000008802bc78       0xa0 cmd/built-in.o
 .rodata.reg_1_desc_tbl
                0x000000008802bd18      0x100 cmd/built-in.o
 .rodata.reg_2_desc_tbl
                0x000000008802be18       0x10 cmd/built-in.o
 .rodata.reg_3_desc_tbl
                0x000000008802be28       0x30 cmd/built-in.o
 .rodata.reg_4_desc_tbl
                0x000000008802be58       0xc0 cmd/built-in.o
 .rodata.reg_5_desc_tbl
                0x000000008802bf18       0xc0 cmd/built-in.o
 .rodata.root_info
                0x000000008802bfd8       0x10 drivers/built-in.o
 .rodata.serial_platdata
                0x000000008802bfe8       0x18 board/armltd/vexpress64/built-in.o
 .rodata.tab_seq
                0x000000008802c000       0x10 common/built-in.o
 .rodata.uimage_arch
                0x000000008802c010      0x258 common/built-in.o
 .rodata.uimage_comp
                0x000000008802c268       0xa8 common/built-in.o
 .rodata.uimage_os
                0x000000008802c310       0xf0 common/built-in.o
 .rodata.uimage_type
                0x000000008802c400      0x2b8 common/built-in.o
 .rodata.version_string
                0x000000008802c6b8       0x50 cmd/built-in.o
                0x000000008802c6b8                version_string
 .rodata.cli_readline_into_buffer
                0x000000008802c708       0x10 common/built-in.o
 .rodata.do_fdt
                0x000000008802c718       0x14 cmd/built-in.o
 .rodata.do_test
                0x000000008802c72c       0x10 cmd/built-in.o
 .rodata.efi_load_pe
                0x000000008802c73c        0xc lib/built-in.o
 .rodata.env_flags_validate
                0x000000008802c748        0x8 common/built-in.o
 .rodata.fdt_next_tag
                0x000000008802c750        0xc lib/built-in.o
 .rodata.flash_add_byte.isra.5
                0x000000008802c75c        0x8 drivers/mtd/built-in.o
 .rodata.flash_isequal
                0x000000008802c764        0x8 drivers/mtd/built-in.o
 .rodata.flash_isset
                0x000000008802c76c        0x8 drivers/mtd/built-in.o
 .rodata.flash_status_check
                0x000000008802c774        0x8 drivers/mtd/built-in.o
 .rodata.flash_write_cfiword
                0x000000008802c77c       0x10 drivers/mtd/built-in.o
 .rodata.flash_write_cmd
                0x000000008802c78c        0x8 drivers/mtd/built-in.o
 .rodata.inflate
                0x000000008802c794       0x3c lib/built-in.o
 .rodata.match  0x000000008802c7d0       0x24 lib/built-in.o
 .rodata.net_loop
                0x000000008802c7f4       0x18 net/built-in.o
 .rodata.parse_pxefile_top
                0x000000008802c80c       0x38 cmd/built-in.o
 .rodata.tftp_send
                0x000000008802c844        0x8 net/built-in.o
 .rodata.write_buff
                0x000000008802c84c       0x30 drivers/mtd/built-in.o
 .rodata        0x000000008802c87c      0x103 common/built-in.o
 .rodata        0x000000008802c97f        0x7 net/built-in.o
 .rodata.str1.1
                0x000000008802c986       0xae arch/arm/cpu/armv8/built-in.o
 .rodata.str1.1
                0x000000008802ca34      0x1cf arch/arm/lib/built-in.o
                                        0x257 (size before relaxing)
 .rodata.str1.1
                0x000000008802cc03       0x1f board/armltd/vexpress64/built-in.o
 .rodata.str1.1
                0x000000008802cc22     0x3f21 cmd/built-in.o
                                       0x40fe (size before relaxing)
 .rodata.str1.1
                0x0000000088030b43     0x1eb6 common/built-in.o
                                       0x21f9 (size before relaxing)
 .rodata.str1.1
                0x00000000880329f9      0x147 disk/built-in.o
                                        0x150 (size before relaxing)
 .rodata.str1.1
                0x0000000088032b40      0x26c drivers/built-in.o
                                        0x2a7 (size before relaxing)
 .rodata.str1.1
                0x0000000088032dac      0x3ad drivers/mtd/built-in.o
                                        0x3f0 (size before relaxing)
 .rodata.str1.1
                0x0000000088033159       0xfd drivers/net/built-in.o
 .rodata.str1.1
                0x0000000088033256       0x59 drivers/serial/built-in.o
                                         0xa8 (size before relaxing)
 .rodata.str1.1
                0x00000000880332af      0x2a1 fs/built-in.o
                                        0x2cd (size before relaxing)
 .rodata.str1.1
                0x0000000088033550      0x92d lib/built-in.o
                                        0x9a3 (size before relaxing)
 .rodata.str1.1
                0x0000000088033e7d      0x6ea net/built-in.o
                                        0x7c6 (size before relaxing)
 .rodata.str1.1
                0x0000000088034567       0xdc test/dm/built-in.o
                                         0xe2 (size before relaxing)

.hash           0x0000000088034648       0x34
 .hash          0x0000000088034648       0x34 arch/arm/cpu/armv8/start.o
                0x0000000088034680                . = ALIGN (0x8)

.data           0x0000000088034680     0x21b0
 *(.data*)
 .data.vexpress64_mem_map
                0x0000000088034680       0x48 board/armltd/vexpress64/built-in.o
 .data.mem_map  0x00000000880346c8        0x8 board/armltd/vexpress64/built-in.o
                0x00000000880346c8                mem_map
 .data.bootm_help_text
                0x00000000880346d0      0x390 cmd/built-in.o
 .data.cmd_bootm_sub
                0x0000000088034a60      0x168 cmd/built-in.o
 .data.booti_help_text
                0x0000000088034bc8      0x1e8 cmd/built-in.o
 .data.source_help_text
                0x0000000088034db0       0x50 cmd/built-in.o
 .data.bootefi_device_path
                0x0000000088034e00       0x88 cmd/built-in.o
 .data.loaded_image_info_obj
                0x0000000088034e88       0x58 cmd/built-in.o
 .data.bootefi_image_path
                0x0000000088034ee0       0x88 cmd/built-in.o
 .data.bootefi_help_text
                0x0000000088034f68       0xc0 cmd/built-in.o
 .data.bootefi_device_obj
                0x0000000088035028       0x58 cmd/built-in.o
 .data.loaded_image_info
                0x0000000088035080       0x60 cmd/built-in.o
 .data.tabs.6090
                0x00000000880350e0       0x28 cmd/built-in.o
 .data.root.6007
                0x0000000088035108        0x8 cmd/built-in.o
 .data.fdt_help_text
                0x0000000088035110      0x5e8 cmd/built-in.o
 .data.dp_last_length
                0x00000000880356f8        0x8 cmd/built-in.o
 .data.cmd_pxe_sub
                0x0000000088035700       0x50 cmd/built-in.o
 .data.pxe_default_paths
                0x0000000088035750       0x18 cmd/built-in.o
                0x0000000088035750                pxe_default_paths
 .data.env_help_text
                0x0000000088035768      0x1f8 cmd/built-in.o
 .data.env_id   0x0000000088035960        0x4 cmd/built-in.o
 *fill*         0x0000000088035964        0x4 
 .data.cmd_env_sub
                0x0000000088035968      0x140 cmd/built-in.o
 .data.reserved_list
                0x0000000088035aa8      0x108 common/built-in.o
 .data.init_sequence_f
                0x0000000088035bb0      0x118 common/built-in.o
 .data.init_sequence_r
                0x0000000088035cc8       0xd8 common/built-in.o
                0x0000000088035cc8                init_sequence_r
 .data.first_call
                0x0000000088035da0        0x8 common/built-in.o
 .data.env_ptr  0x0000000088035da8        0x8 common/built-in.o
                0x0000000088035da8                env_ptr
 .data.env_name_spec
                0x0000000088035db0        0x8 common/built-in.o
                0x0000000088035db0                env_name_spec
 .data.env_htab
                0x0000000088035db8       0x18 common/built-in.o
                0x0000000088035db8                env_htab
 .data.av_      0x0000000088035dd0      0x810 common/built-in.o
 .data.sbrk_base
                0x00000000880365e0        0x8 common/built-in.o
 .data.trim_threshold
                0x00000000880365e8        0x8 common/built-in.o
 .data.load_addr
                0x00000000880365f0        0x8 common/built-in.o
                0x00000000880365f0                load_addr
 .data.stdio_names
                0x00000000880365f8       0x18 common/built-in.o
                0x00000000880365f8                stdio_names
 .data.hist_cur
                0x0000000088036610        0x4 common/built-in.o
 *fill*         0x0000000088036614        0x4 
 .data.fstypes  0x0000000088036618       0xb0 fs/built-in.o
 .data.efi_event
                0x00000000880366c8       0x30 lib/built-in.o
 .data.efi_is_direct_boot
                0x00000000880366f8        0x1 lib/built-in.o
 *fill*         0x00000000880366f9        0x7 
 .data.loaded_image_info_obj.6170
                0x0000000088036700       0x58 lib/built-in.o
 .data.efi_obj_list
                0x0000000088036758       0x10 lib/built-in.o
                0x0000000088036758                efi_obj_list
 .data.console_columns
                0x0000000088036768        0x4 lib/built-in.o
 .data.console_rows
                0x000000008803676c        0x4 lib/built-in.o
 .data.efi_con_mode
                0x0000000088036770       0x18 lib/built-in.o
 .data.efi_mem  0x0000000088036788       0x10 lib/built-in.o
                0x0000000088036788                efi_mem
 .data.net_native_vlan
                0x0000000088036798        0x2 net/built-in.o
                0x0000000088036798                net_native_vlan
 .data.net_our_vlan
                0x000000008803679a        0x2 net/built-in.o
                0x000000008803679a                net_our_vlan
 .data.first_call.5414
                0x000000008803679c        0x4 net/built-in.o
 .data.tftp_block_size_option
                0x00000000880367a0        0x2 net/built-in.o
 *fill*         0x00000000880367a2        0x2 
 .data.tftp_timeout_count_max
                0x00000000880367a4        0x4 net/built-in.o
                0x00000000880367a4                tftp_timeout_count_max
 .data.timeout_ms
                0x00000000880367a8        0x8 net/built-in.o
 .data.tftp_block_size
                0x00000000880367b0        0x2 net/built-in.o
 *fill*         0x00000000880367b2        0x2 
 .data.timeout_count_max
                0x00000000880367b4        0x4 net/built-in.o
 .data.test_commands
                0x00000000880367b8       0x78 test/dm/built-in.o

.got            0x0000000088036830        0x8
 .got           0x0000000088036830        0x8 arch/arm/cpu/armv8/start.o
                0x0000000088036830                _GLOBAL_OFFSET_TABLE_

.got.plt        0x0000000088036838       0x18
 .got.plt       0x0000000088036838       0x18 arch/arm/cpu/armv8/start.o

.__efi_runtime_rel_start
                0x0000000088036850        0x0
 .__efi_runtime_rel_start
                0x0000000088036850        0x0 arch/arm/lib/built-in.o

.__efi_runtime_stop
                0x0000000088036850        0x0
 .__efi_runtime_stop
                0x0000000088036850        0x0 arch/arm/lib/built-in.o

.__efi_runtime_rel_stop
                0x0000000088036850        0x0
 .__efi_runtime_rel_stop
                0x0000000088036850        0x0 arch/arm/lib/built-in.o

.__efi_runtime_start
                0x0000000088036850        0x0
 .__efi_runtime_start
                0x0000000088036850        0x0 arch/arm/lib/built-in.o
                0x0000000088036850                . = ALIGN (0x8)
                0x0000000088036850                . = .
                0x0000000088036850                . = ALIGN (0x8)

.u_boot_list    0x0000000088036850      0xc30
 *(SORT(.u_boot_list*))
 .u_boot_list_2_blk_driver_1
                0x0000000088036850        0x0 drivers/built-in.o
 .u_boot_list_2_blk_driver_3
                0x0000000088036850        0x0 drivers/built-in.o
 .u_boot_list_2_cmd_1
                0x0000000088036850        0x0 cmd/built-in.o
 .u_boot_list_2_cmd_1
                0x0000000088036850        0x0 common/built-in.o
 .u_boot_list_2_cmd_2_afs
                0x0000000088036850       0x28 cmd/built-in.o
                0x0000000088036850                _u_boot_list_2_cmd_2_afs
 .u_boot_list_2_cmd_2_base
                0x0000000088036878       0x28 cmd/built-in.o
                0x0000000088036878                _u_boot_list_2_cmd_2_base
 .u_boot_list_2_cmd_2_bdinfo
                0x00000000880368a0       0x28 cmd/built-in.o
                0x00000000880368a0                _u_boot_list_2_cmd_2_bdinfo
 .u_boot_list_2_cmd_2_boot
                0x00000000880368c8       0x28 cmd/built-in.o
                0x00000000880368c8                _u_boot_list_2_cmd_2_boot
 .u_boot_list_2_cmd_2_bootd
                0x00000000880368f0       0x28 cmd/built-in.o
                0x00000000880368f0                _u_boot_list_2_cmd_2_bootd
 .u_boot_list_2_cmd_2_bootefi
                0x0000000088036918       0x28 cmd/built-in.o
                0x0000000088036918                _u_boot_list_2_cmd_2_bootefi
 .u_boot_list_2_cmd_2_bootelf
                0x0000000088036940       0x28 cmd/built-in.o
                0x0000000088036940                _u_boot_list_2_cmd_2_bootelf
 .u_boot_list_2_cmd_2_booti
                0x0000000088036968       0x28 cmd/built-in.o
                0x0000000088036968                _u_boot_list_2_cmd_2_booti
 .u_boot_list_2_cmd_2_bootm
                0x0000000088036990       0x28 cmd/built-in.o
                0x0000000088036990                _u_boot_list_2_cmd_2_bootm
 .u_boot_list_2_cmd_2_bootp
                0x00000000880369b8       0x28 cmd/built-in.o
                0x00000000880369b8                _u_boot_list_2_cmd_2_bootp
 .u_boot_list_2_cmd_2_bootvx
                0x00000000880369e0       0x28 cmd/built-in.o
                0x00000000880369e0                _u_boot_list_2_cmd_2_bootvx
 .u_boot_list_2_cmd_2_cmp
                0x0000000088036a08       0x28 cmd/built-in.o
                0x0000000088036a08                _u_boot_list_2_cmd_2_cmp
 .u_boot_list_2_cmd_2_cp
                0x0000000088036a30       0x28 cmd/built-in.o
                0x0000000088036a30                _u_boot_list_2_cmd_2_cp
 .u_boot_list_2_cmd_2_crc32
                0x0000000088036a58       0x28 cmd/built-in.o
                0x0000000088036a58                _u_boot_list_2_cmd_2_crc32
 .u_boot_list_2_cmd_2_dcache
                0x0000000088036a80       0x28 cmd/built-in.o
                0x0000000088036a80                _u_boot_list_2_cmd_2_dcache
 .u_boot_list_2_cmd_2_dhcp
                0x0000000088036aa8       0x28 cmd/built-in.o
                0x0000000088036aa8                _u_boot_list_2_cmd_2_dhcp
 .u_boot_list_2_cmd_2_dm
                0x0000000088036ad0       0x28 test/dm/built-in.o
                0x0000000088036ad0                _u_boot_list_2_cmd_2_dm
 .u_boot_list_2_cmd_2_echo
                0x0000000088036af8       0x28 cmd/built-in.o
                0x0000000088036af8                _u_boot_list_2_cmd_2_echo
 .u_boot_list_2_cmd_2_env
                0x0000000088036b20       0x28 cmd/built-in.o
                0x0000000088036b20                _u_boot_list_2_cmd_2_env
 .u_boot_list_2_cmd_2_erase
                0x0000000088036b48       0x28 cmd/built-in.o
                0x0000000088036b48                _u_boot_list_2_cmd_2_erase
 .u_boot_list_2_cmd_2_exit
                0x0000000088036b70       0x28 cmd/built-in.o
                0x0000000088036b70                _u_boot_list_2_cmd_2_exit
 .u_boot_list_2_cmd_2_false
                0x0000000088036b98       0x28 cmd/built-in.o
                0x0000000088036b98                _u_boot_list_2_cmd_2_false
 .u_boot_list_2_cmd_2_fatinfo
                0x0000000088036bc0       0x28 cmd/built-in.o
                0x0000000088036bc0                _u_boot_list_2_cmd_2_fatinfo
 .u_boot_list_2_cmd_2_fatload
                0x0000000088036be8       0x28 cmd/built-in.o
                0x0000000088036be8                _u_boot_list_2_cmd_2_fatload
 .u_boot_list_2_cmd_2_fatls
                0x0000000088036c10       0x28 cmd/built-in.o
                0x0000000088036c10                _u_boot_list_2_cmd_2_fatls
 .u_boot_list_2_cmd_2_fatsize
                0x0000000088036c38       0x28 cmd/built-in.o
                0x0000000088036c38                _u_boot_list_2_cmd_2_fatsize
 .u_boot_list_2_cmd_2_fdt
                0x0000000088036c60       0x28 cmd/built-in.o
                0x0000000088036c60                _u_boot_list_2_cmd_2_fdt
 .u_boot_list_2_cmd_2_flinfo
                0x0000000088036c88       0x28 cmd/built-in.o
                0x0000000088036c88                _u_boot_list_2_cmd_2_flinfo
 .u_boot_list_2_cmd_2_go
                0x0000000088036cb0       0x28 cmd/built-in.o
                0x0000000088036cb0                _u_boot_list_2_cmd_2_go
 .u_boot_list_2_cmd_2_gzwrite
                0x0000000088036cd8       0x28 cmd/built-in.o
                0x0000000088036cd8                _u_boot_list_2_cmd_2_gzwrite
 .u_boot_list_2_cmd_2_help
                0x0000000088036d00       0x28 cmd/built-in.o
                0x0000000088036d00                _u_boot_list_2_cmd_2_help
 .u_boot_list_2_cmd_2_icache
                0x0000000088036d28       0x28 cmd/built-in.o
                0x0000000088036d28                _u_boot_list_2_cmd_2_icache
 .u_boot_list_2_cmd_2_iminfo
                0x0000000088036d50       0x28 cmd/built-in.o
                0x0000000088036d50                _u_boot_list_2_cmd_2_iminfo
 .u_boot_list_2_cmd_2_loadb
                0x0000000088036d78       0x28 cmd/built-in.o
                0x0000000088036d78                _u_boot_list_2_cmd_2_loadb
 .u_boot_list_2_cmd_2_loadx
                0x0000000088036da0       0x28 cmd/built-in.o
                0x0000000088036da0                _u_boot_list_2_cmd_2_loadx
 .u_boot_list_2_cmd_2_loady
                0x0000000088036dc8       0x28 cmd/built-in.o
                0x0000000088036dc8                _u_boot_list_2_cmd_2_loady
 .u_boot_list_2_cmd_2_loop
                0x0000000088036df0       0x28 cmd/built-in.o
                0x0000000088036df0                _u_boot_list_2_cmd_2_loop
 .u_boot_list_2_cmd_2_md
                0x0000000088036e18       0x28 cmd/built-in.o
                0x0000000088036e18                _u_boot_list_2_cmd_2_md
 .u_boot_list_2_cmd_2_mii
                0x0000000088036e40       0x28 cmd/built-in.o
                0x0000000088036e40                _u_boot_list_2_cmd_2_mii
 .u_boot_list_2_cmd_2_mm
                0x0000000088036e68       0x28 cmd/built-in.o
                0x0000000088036e68                _u_boot_list_2_cmd_2_mm
 .u_boot_list_2_cmd_2_mtest
                0x0000000088036e90       0x28 cmd/built-in.o
                0x0000000088036e90                _u_boot_list_2_cmd_2_mtest
 .u_boot_list_2_cmd_2_mw
                0x0000000088036eb8       0x28 cmd/built-in.o
                0x0000000088036eb8                _u_boot_list_2_cmd_2_mw
 .u_boot_list_2_cmd_2_nm
                0x0000000088036ee0       0x28 cmd/built-in.o
                0x0000000088036ee0                _u_boot_list_2_cmd_2_nm
 .u_boot_list_2_cmd_2_ping
                0x0000000088036f08       0x28 cmd/built-in.o
                0x0000000088036f08                _u_boot_list_2_cmd_2_ping
 .u_boot_list_2_cmd_2_printenv
                0x0000000088036f30       0x28 cmd/built-in.o
                0x0000000088036f30                _u_boot_list_2_cmd_2_printenv
 .u_boot_list_2_cmd_2_protect
                0x0000000088036f58       0x28 cmd/built-in.o
                0x0000000088036f58                _u_boot_list_2_cmd_2_protect
 .u_boot_list_2_cmd_2_pxe
                0x0000000088036f80       0x28 cmd/built-in.o
                0x0000000088036f80                _u_boot_list_2_cmd_2_pxe
 .u_boot_list_2_cmd_2_question_mark
                0x0000000088036fa8       0x28 cmd/built-in.o
                0x0000000088036fa8                _u_boot_list_2_cmd_2_question_mark
 .u_boot_list_2_cmd_2_reset
                0x0000000088036fd0       0x28 cmd/built-in.o
                0x0000000088036fd0                _u_boot_list_2_cmd_2_reset
 .u_boot_list_2_cmd_2_run
                0x0000000088036ff8       0x28 cmd/built-in.o
                0x0000000088036ff8                _u_boot_list_2_cmd_2_run
 .u_boot_list_2_cmd_2_saveenv
                0x0000000088037020       0x28 cmd/built-in.o
                0x0000000088037020                _u_boot_list_2_cmd_2_saveenv
 .u_boot_list_2_cmd_2_setenv
                0x0000000088037048       0x28 cmd/built-in.o
                0x0000000088037048                _u_boot_list_2_cmd_2_setenv
 .u_boot_list_2_cmd_2_showvar
                0x0000000088037070       0x28 common/built-in.o
                0x0000000088037070                _u_boot_list_2_cmd_2_showvar
 .u_boot_list_2_cmd_2_source
                0x0000000088037098       0x28 cmd/built-in.o
                0x0000000088037098                _u_boot_list_2_cmd_2_source
 .u_boot_list_2_cmd_2_sysboot
                0x00000000880370c0       0x28 cmd/built-in.o
                0x00000000880370c0                _u_boot_list_2_cmd_2_sysboot
 .u_boot_list_2_cmd_2_test
                0x00000000880370e8       0x28 cmd/built-in.o
                0x00000000880370e8                _u_boot_list_2_cmd_2_test
 .u_boot_list_2_cmd_2_tftpboot
                0x0000000088037110       0x28 cmd/built-in.o
                0x0000000088037110                _u_boot_list_2_cmd_2_tftpboot
 .u_boot_list_2_cmd_2_true
                0x0000000088037138       0x28 cmd/built-in.o
                0x0000000088037138                _u_boot_list_2_cmd_2_true
 .u_boot_list_2_cmd_2_unzip
                0x0000000088037160       0x28 cmd/built-in.o
                0x0000000088037160                _u_boot_list_2_cmd_2_unzip
 .u_boot_list_2_cmd_2_version
                0x0000000088037188       0x28 cmd/built-in.o
                0x0000000088037188                _u_boot_list_2_cmd_2_version
 .u_boot_list_2_cmd_3
                0x00000000880371b0        0x0 cmd/built-in.o
 .u_boot_list_2_cmd_3
                0x00000000880371b0        0x0 common/built-in.o
 .u_boot_list_2_driver_1
                0x00000000880371b0        0x0 drivers/built-in.o
 .u_boot_list_2_driver_2_root_driver
                0x00000000880371b0       0x78 drivers/built-in.o
                0x00000000880371b0                _u_boot_list_2_driver_2_root_driver
 .u_boot_list_2_driver_2_serial_pl01x
                0x0000000088037228       0x78 drivers/serial/built-in.o
                0x0000000088037228                _u_boot_list_2_driver_2_serial_pl01x
 .u_boot_list_2_driver_3
                0x00000000880372a0        0x0 drivers/built-in.o
 .u_boot_list_2_driver_info_1
                0x00000000880372a0        0x0 drivers/built-in.o
 .u_boot_list_2_driver_info_2_vexpress_serials
                0x00000000880372a0       0x10 board/armltd/vexpress64/built-in.o
                0x00000000880372a0                _u_boot_list_2_driver_info_2_vexpress_serials
 .u_boot_list_2_driver_info_3
                0x00000000880372b0        0x0 drivers/built-in.o
 .u_boot_list_2_env_clbk_1
                0x00000000880372b0        0x0 common/built-in.o
 .u_boot_list_2_env_clbk_2_baudrate
                0x00000000880372b0       0x10 drivers/serial/built-in.o
                0x00000000880372b0                _u_boot_list_2_env_clbk_2_baudrate
 .u_boot_list_2_env_clbk_2_bootfile
                0x00000000880372c0       0x10 net/built-in.o
                0x00000000880372c0                _u_boot_list_2_env_clbk_2_bootfile
 .u_boot_list_2_env_clbk_2_callbacks
                0x00000000880372d0       0x10 common/built-in.o
                0x00000000880372d0                _u_boot_list_2_env_clbk_2_callbacks
 .u_boot_list_2_env_clbk_2_console
                0x00000000880372e0       0x10 common/built-in.o
                0x00000000880372e0                _u_boot_list_2_env_clbk_2_console
 .u_boot_list_2_env_clbk_2_ethaddr
                0x00000000880372f0       0x10 net/built-in.o
                0x00000000880372f0                _u_boot_list_2_env_clbk_2_ethaddr
 .u_boot_list_2_env_clbk_2_flags
                0x0000000088037300       0x10 common/built-in.o
                0x0000000088037300                _u_boot_list_2_env_clbk_2_flags
 .u_boot_list_2_env_clbk_2_gatewayip
                0x0000000088037310       0x10 net/built-in.o
                0x0000000088037310                _u_boot_list_2_env_clbk_2_gatewayip
 .u_boot_list_2_env_clbk_2_ipaddr
                0x0000000088037320       0x10 net/built-in.o
                0x0000000088037320                _u_boot_list_2_env_clbk_2_ipaddr
 .u_boot_list_2_env_clbk_2_loadaddr
                0x0000000088037330       0x10 common/built-in.o
                0x0000000088037330                _u_boot_list_2_env_clbk_2_loadaddr
 .u_boot_list_2_env_clbk_2_netmask
                0x0000000088037340       0x10 net/built-in.o
                0x0000000088037340                _u_boot_list_2_env_clbk_2_netmask
 .u_boot_list_2_env_clbk_2_nvlan
                0x0000000088037350       0x10 net/built-in.o
                0x0000000088037350                _u_boot_list_2_env_clbk_2_nvlan
 .u_boot_list_2_env_clbk_2_serverip
                0x0000000088037360       0x10 net/built-in.o
                0x0000000088037360                _u_boot_list_2_env_clbk_2_serverip
 .u_boot_list_2_env_clbk_2_vlan
                0x0000000088037370       0x10 net/built-in.o
                0x0000000088037370                _u_boot_list_2_env_clbk_2_vlan
 .u_boot_list_2_env_clbk_3
                0x0000000088037380        0x0 common/built-in.o
 .u_boot_list_2_uclass_1
                0x0000000088037380        0x0 drivers/built-in.o
 .u_boot_list_2_uclass_2_root
                0x0000000088037380       0x80 drivers/built-in.o
                0x0000000088037380                _u_boot_list_2_uclass_2_root
 .u_boot_list_2_uclass_2_serial
                0x0000000088037400       0x80 drivers/serial/built-in.o
                0x0000000088037400                _u_boot_list_2_uclass_2_serial
 .u_boot_list_2_uclass_3
                0x0000000088037480        0x0 drivers/built-in.o
                0x0000000088037480                . = ALIGN (0x8)

.efi_runtime    0x0000000088037480      0x150
                0x0000000088037480                __efi_runtime_start = .
 *(efi_runtime_text)
 efi_runtime_text
                0x0000000088037480       0x1c lib/built-in.o
 *(efi_runtime_data)
 *fill*         0x000000008803749c        0x4 
 efi_runtime_data
                0x00000000880374a0      0x130 lib/built-in.o
                0x00000000880374a0                systab
                0x0000000088037548                efi_runtime_services
                0x00000000880375d0                __efi_runtime_stop = .

.efi_runtime_rel
                0x00000000880375d0      0x1b0
                0x00000000880375d0                __efi_runtime_rel_start = .
 *(.relaefi_runtime_text)
 *(.relaefi_runtime_data)
 .relaefi_runtime_data
                0x00000000880375d0      0x1b0 arch/arm/cpu/armv8/start.o
                0x0000000088037780                __efi_runtime_rel_stop = .
                0x0000000088037780                . = ALIGN (0x8)

.image_copy_end
                0x0000000088037780        0x0
 *(.__image_copy_end)
 .__image_copy_end
                0x0000000088037780        0x0 arch/arm/lib/built-in.o
                0x0000000088037780                . = ALIGN (0x8)

.rel_dyn_start  0x0000000088037780        0x0
 *(.__rel_dyn_start)
 .__rel_dyn_start
                0x0000000088037780        0x0 arch/arm/lib/built-in.o

.rela.dyn       0x0000000088037780     0x6420
 *(.rela*)
 .rela.got      0x0000000000000000        0x0 arch/arm/cpu/armv8/start.o
 .rela.plt      0x0000000000000000        0x0 arch/arm/cpu/armv8/start.o
 .rela.ifunc    0x0000000000000000        0x0 arch/arm/cpu/armv8/start.o
 .rela.text     0x0000000088037780       0x90 arch/arm/cpu/armv8/start.o
 .rela.u_boot_list_2_driver_info_2_vexpress_serials
                0x0000000088037810       0x30 arch/arm/cpu/armv8/start.o
 .rela.data.mem_map
                0x0000000088037840       0x18 arch/arm/cpu/armv8/start.o
 .rela.text.do_version
                0x0000000088037858       0x18 arch/arm/cpu/armv8/start.o
 .rela.rodata.reg_4_desc_tbl
                0x0000000088037870      0x120 arch/arm/cpu/armv8/start.o
 .rela.rodata.desc_and_len_tbl
                0x0000000088037990       0x90 arch/arm/cpu/armv8/start.o
 .rela.rodata.reg_5_desc_tbl
                0x0000000088037a20      0x120 arch/arm/cpu/armv8/start.o
 .rela.rodata.reg_2_desc_tbl
                0x0000000088037b40       0x18 arch/arm/cpu/armv8/start.o
 .rela.rodata.reg_0_5_desc_tbl
                0x0000000088037b58       0x90 arch/arm/cpu/armv8/start.o
 .rela.rodata.reg_3_desc_tbl
                0x0000000088037be8       0x48 arch/arm/cpu/armv8/start.o
 .rela.rodata.reg_0_desc_tbl
                0x0000000088037c30       0xf0 arch/arm/cpu/armv8/start.o
 .rela.rodata.reg_1_desc_tbl
                0x0000000088037d20      0x180 arch/arm/cpu/armv8/start.o
 .rela.rodata.keywords
                0x0000000088037ea0      0x1b0 arch/arm/cpu/armv8/start.o
 .rela.rodata.op_adv
                0x0000000088038050      0x180 arch/arm/cpu/armv8/start.o
 .rela.u_boot_list_2_cmd_2_go
                0x00000000880381d0       0x60 arch/arm/cpu/armv8/start.o
 .rela.u_boot_list_2_cmd_2_reset
                0x0000000088038230       0x60 arch/arm/cpu/armv8/start.o
 .rela.u_boot_list_2_cmd_2_iminfo
                0x0000000088038290       0x60 arch/arm/cpu/armv8/start.o
 .rela.u_boot_list_2_cmd_2_boot
                0x00000000880382f0       0x60 arch/arm/cpu/armv8/start.o
 .rela.u_boot_list_2_cmd_2_bootd
                0x0000000088038350       0x60 arch/arm/cpu/armv8/start.o
 .rela.u_boot_list_2_cmd_2_booti
                0x00000000880383b0       0x60 arch/arm/cpu/armv8/start.o
 .rela.u_boot_list_2_cmd_2_bootm
                0x0000000088038410       0x60 arch/arm/cpu/armv8/start.o
 .rela.data.cmd_bootm_sub
                0x0000000088038470      0x288 arch/arm/cpu/armv8/start.o
 .rela.u_boot_list_2_cmd_2_question_mark
                0x00000000880386f8       0x60 arch/arm/cpu/armv8/start.o
 .rela.u_boot_list_2_cmd_2_help
                0x0000000088038758       0x60 arch/arm/cpu/armv8/start.o
 .rela.u_boot_list_2_cmd_2_version
                0x00000000880387b8       0x60 arch/arm/cpu/armv8/start.o
 .rela.u_boot_list_2_cmd_2_afs
                0x0000000088038818       0x60 arch/arm/cpu/armv8/start.o
 .rela.u_boot_list_2_cmd_2_source
                0x0000000088038878       0x60 arch/arm/cpu/armv8/start.o
 .rela.u_boot_list_2_cmd_2_bdinfo
                0x00000000880388d8       0x60 arch/arm/cpu/armv8/start.o
 .rela.data.loaded_image_info_obj
                0x0000000088038938       0x78 arch/arm/cpu/armv8/start.o
 .rela.u_boot_list_2_cmd_2_bootefi
                0x00000000880389b0       0x60 arch/arm/cpu/armv8/start.o
 .rela.data.bootefi_device_obj
                0x0000000088038a10       0x48 arch/arm/cpu/armv8/start.o
 .rela.data.loaded_image_info
                0x0000000088038a58       0x30 arch/arm/cpu/armv8/start.o
 .rela.u_boot_list_2_cmd_2_icache
                0x0000000088038a88       0x60 arch/arm/cpu/armv8/start.o
 .rela.u_boot_list_2_cmd_2_dcache
                0x0000000088038ae8       0x60 arch/arm/cpu/armv8/start.o
 .rela.u_boot_list_2_cmd_2_echo
                0x0000000088038b48       0x60 arch/arm/cpu/armv8/start.o
 .rela.u_boot_list_2_cmd_2_bootelf
                0x0000000088038ba8       0x60 arch/arm/cpu/armv8/start.o
 .rela.u_boot_list_2_cmd_2_bootvx
                0x0000000088038c08       0x60 arch/arm/cpu/armv8/start.o
 .rela.u_boot_list_2_cmd_2_exit
                0x0000000088038c68       0x60 arch/arm/cpu/armv8/start.o
 .rela.u_boot_list_2_cmd_2_fatinfo
                0x0000000088038cc8       0x60 arch/arm/cpu/armv8/start.o
 .rela.u_boot_list_2_cmd_2_fatsize
                0x0000000088038d28       0x60 arch/arm/cpu/armv8/start.o
 .rela.u_boot_list_2_cmd_2_fatload
                0x0000000088038d88       0x60 arch/arm/cpu/armv8/start.o
 .rela.u_boot_list_2_cmd_2_fatls
                0x0000000088038de8       0x60 arch/arm/cpu/armv8/start.o
 .rela.u_boot_list_2_cmd_2_fdt
                0x0000000088038e48       0x60 arch/arm/cpu/armv8/start.o
 .rela.u_boot_list_2_cmd_2_protect
                0x0000000088038ea8       0x60 arch/arm/cpu/armv8/start.o
 .rela.u_boot_list_2_cmd_2_erase
                0x0000000088038f08       0x60 arch/arm/cpu/armv8/start.o
 .rela.u_boot_list_2_cmd_2_flinfo
                0x0000000088038f68       0x60 arch/arm/cpu/armv8/start.o
 .rela.u_boot_list_2_cmd_2_loadb
                0x0000000088038fc8       0x60 arch/arm/cpu/armv8/start.o
 .rela.u_boot_list_2_cmd_2_loadx
                0x0000000088039028       0x60 arch/arm/cpu/armv8/start.o
 .rela.u_boot_list_2_cmd_2_loady
                0x0000000088039088       0x60 arch/arm/cpu/armv8/start.o
 .rela.u_boot_list_2_cmd_2_base
                0x00000000880390e8       0x60 arch/arm/cpu/armv8/start.o
 .rela.u_boot_list_2_cmd_2_cmp
                0x0000000088039148       0x60 arch/arm/cpu/armv8/start.o
 .rela.u_boot_list_2_cmd_2_nm
                0x00000000880391a8       0x60 arch/arm/cpu/armv8/start.o
 .rela.u_boot_list_2_cmd_2_loop
                0x0000000088039208       0x60 arch/arm/cpu/armv8/start.o
 .rela.u_boot_list_2_cmd_2_mtest
                0x0000000088039268       0x60 arch/arm/cpu/armv8/start.o
 .rela.u_boot_list_2_cmd_2_cp
                0x00000000880392c8       0x60 arch/arm/cpu/armv8/start.o
 .rela.u_boot_list_2_cmd_2_mm
                0x0000000088039328       0x60 arch/arm/cpu/armv8/start.o
 .rela.u_boot_list_2_cmd_2_crc32
                0x0000000088039388       0x60 arch/arm/cpu/armv8/start.o
 .rela.u_boot_list_2_cmd_2_md
                0x00000000880393e8       0x60 arch/arm/cpu/armv8/start.o
 .rela.u_boot_list_2_cmd_2_mw
                0x0000000088039448       0x60 arch/arm/cpu/armv8/start.o
 .rela.u_boot_list_2_cmd_2_mii
                0x00000000880394a8       0x60 arch/arm/cpu/armv8/start.o
 .rela.u_boot_list_2_cmd_2_ping
                0x0000000088039508       0x60 arch/arm/cpu/armv8/start.o
 .rela.u_boot_list_2_cmd_2_dhcp
                0x0000000088039568       0x60 arch/arm/cpu/armv8/start.o
 .rela.u_boot_list_2_cmd_2_bootp
                0x00000000880395c8       0x60 arch/arm/cpu/armv8/start.o
 .rela.u_boot_list_2_cmd_2_tftpboot
                0x0000000088039628       0x60 arch/arm/cpu/armv8/start.o
 .rela.u_boot_list_2_cmd_2_pxe
                0x0000000088039688       0x60 arch/arm/cpu/armv8/start.o
 .rela.data.cmd_pxe_sub
                0x00000000880396e8       0xc0 arch/arm/cpu/armv8/start.o
 .rela.u_boot_list_2_cmd_2_sysboot
                0x00000000880397a8       0x60 arch/arm/cpu/armv8/start.o
 .rela.data.pxe_default_paths
                0x0000000088039808       0x30 arch/arm/cpu/armv8/start.o
 .rela.u_boot_list_2_cmd_2_test
                0x0000000088039838       0x60 arch/arm/cpu/armv8/start.o
 .rela.u_boot_list_2_cmd_2_true
                0x0000000088039898       0x48 arch/arm/cpu/armv8/start.o
 .rela.u_boot_list_2_cmd_2_false
                0x00000000880398e0       0x48 arch/arm/cpu/armv8/start.o
 .rela.u_boot_list_2_cmd_2_gzwrite
                0x0000000088039928       0x60 arch/arm/cpu/armv8/start.o
 .rela.u_boot_list_2_cmd_2_unzip
                0x0000000088039988       0x60 arch/arm/cpu/armv8/start.o
 .rela.u_boot_list_2_cmd_2_setenv
                0x00000000880399e8       0x60 arch/arm/cpu/armv8/start.o
 .rela.u_boot_list_2_cmd_2_env
                0x0000000088039a48       0x60 arch/arm/cpu/armv8/start.o
 .rela.u_boot_list_2_cmd_2_saveenv
                0x0000000088039aa8       0x60 arch/arm/cpu/armv8/start.o
 .rela.data.cmd_env_sub
                0x0000000088039b08      0x300 arch/arm/cpu/armv8/start.o
 .rela.u_boot_list_2_cmd_2_printenv
                0x0000000088039e08       0x60 arch/arm/cpu/armv8/start.o
 .rela.u_boot_list_2_cmd_2_run
                0x0000000088039e68       0x60 arch/arm/cpu/armv8/start.o
 .rela.rodata.boot_os
                0x0000000088039ec8       0xa8 arch/arm/cpu/armv8/start.o
 .rela.rodata.uimage_comp
                0x0000000088039f70      0x150 arch/arm/cpu/armv8/start.o
 .rela.rodata.uimage_os
                0x000000008803a0c0      0x1c8 arch/arm/cpu/armv8/start.o
 .rela.rodata.uimage_arch
                0x000000008803a288      0x498 arch/arm/cpu/armv8/start.o
 .rela.rodata.uimage_type
                0x000000008803a720      0x558 arch/arm/cpu/armv8/start.o
 .rela.rodata.CSWTCH.24
                0x000000008803ac78       0xc0 arch/arm/cpu/armv8/start.o
 .rela.data.hash_algo
                0x0000000000000000        0x0 arch/arm/cpu/armv8/start.o
 .rela.data.reserved_list
                0x000000008803ad38      0x108 arch/arm/cpu/armv8/start.o
 .rela.u_boot_list_2_cmd_2_showvar
                0x000000008803ae40       0x60 arch/arm/cpu/armv8/start.o
 .rela.data.init_sequence_f
                0x000000008803aea0      0x330 arch/arm/cpu/armv8/start.o
 .rela.data.init_sequence_r
                0x000000008803b1d0      0x288 arch/arm/cpu/armv8/start.o
 .rela.u_boot_list_2_env_clbk_2_callbacks
                0x000000008803b458       0x30 arch/arm/cpu/armv8/start.o
 .rela.u_boot_list_2_env_clbk_2_flags
                0x000000008803b488       0x30 arch/arm/cpu/armv8/start.o
 .rela.data.env_name_spec
                0x000000008803b4b8       0x18 arch/arm/cpu/armv8/start.o
 .rela.data.of_busses
                0x0000000000000000        0x0 arch/arm/cpu/armv8/start.o
 .rela.data.env_htab
                0x000000008803b4d0       0x18 arch/arm/cpu/armv8/start.o
 .rela.u_boot_list_2_env_clbk_2_console
                0x000000008803b4e8       0x30 arch/arm/cpu/armv8/start.o
 .rela.data.av_
                0x000000008803b518     0x1800 arch/arm/cpu/armv8/start.o
 .rela.u_boot_list_2_env_clbk_2_loadaddr
                0x000000008803cd18       0x30 arch/arm/cpu/armv8/start.o
 .rela.data.stdio_names
                0x000000008803cd48       0x48 arch/arm/cpu/armv8/start.o
 .rela.rodata.root_info
                0x000000008803cd90       0x18 arch/arm/cpu/armv8/start.o
 .rela.rodata.kbd_to_ansi364
                0x0000000000000000        0x0 arch/arm/cpu/armv8/start.o
 .rela.u_boot_list_2_driver_2_root_driver
                0x000000008803cda8       0x18 arch/arm/cpu/armv8/start.o
 .rela.u_boot_list_2_uclass_2_root
                0x000000008803cdc0       0x18 arch/arm/cpu/armv8/start.o
 .rela.data.kbd_entry
                0x0000000000000000        0x0 arch/arm/cpu/armv8/start.o
 .rela.rodata.pl01x_serial_ops
                0x000000008803cdd8       0x60 arch/arm/cpu/armv8/start.o
 .rela.u_boot_list_2_env_clbk_2_baudrate
                0x000000008803ce38       0x30 arch/arm/cpu/armv8/start.o
 .rela.u_boot_list_2_uclass_2_serial
                0x000000008803ce68       0x48 arch/arm/cpu/armv8/start.o
 .rela.u_boot_list_2_driver_2_serial_pl01x
                0x000000008803ceb0       0x48 arch/arm/cpu/armv8/start.o
 .rela.rodata.filesystems
                0x0000000000000000        0x0 arch/arm/cpu/armv8/start.o
 .rela.data.fstypes
                0x000000008803cef8      0x1b0 arch/arm/cpu/armv8/start.o
 .rela.rodata.efi_boot_services
                0x000000008803d0a8      0x3f0 arch/arm/cpu/armv8/start.o
 .rela.rodata.efi_runtime_detach_list
                0x000000008803d498       0xd8 arch/arm/cpu/armv8/start.o
 .rela.rodata.efi_con_out
                0x000000008803d570       0xf0 arch/arm/cpu/armv8/start.o
 .rela.rodata.efi_console_control
                0x000000008803d660       0x48 arch/arm/cpu/armv8/start.o
 .rela.rodata.efi_con_in
                0x000000008803d6a8       0x30 arch/arm/cpu/armv8/start.o
 .rela.rodata.z_errmsg
                0x0000000000000000        0x0 arch/arm/cpu/armv8/start.o
 .rela.rodata.fdt_errtable
                0x000000008803d6d8      0x108 arch/arm/cpu/armv8/start.o
 .rela.data.loaded_image_info_obj.6170
                0x000000008803d7e0       0x30 arch/arm/cpu/armv8/start.o
 .rela.data.efi_obj_list
                0x000000008803d810       0x30 arch/arm/cpu/armv8/start.o
 .rela.data.efi_mem
                0x000000008803d840       0x30 arch/arm/cpu/armv8/start.o
 .rela.data.current
                0x0000000000000000        0x0 arch/arm/cpu/armv8/start.o
 .rela.text.eth_initialize
                0x000000008803d870       0x30 arch/arm/cpu/armv8/start.o
 .rela.u_boot_list_2_env_clbk_2_ethaddr
                0x000000008803d8a0       0x30 arch/arm/cpu/armv8/start.o
 .rela.u_boot_list_2_env_clbk_2_ipaddr
                0x000000008803d8d0       0x30 arch/arm/cpu/armv8/start.o
 .rela.u_boot_list_2_env_clbk_2_vlan
                0x000000008803d900       0x30 arch/arm/cpu/armv8/start.o
 .rela.u_boot_list_2_env_clbk_2_serverip
                0x000000008803d930       0x30 arch/arm/cpu/armv8/start.o
 .rela.u_boot_list_2_env_clbk_2_bootfile
                0x000000008803d960       0x30 arch/arm/cpu/armv8/start.o
 .rela.u_boot_list_2_env_clbk_2_netmask
                0x000000008803d990       0x30 arch/arm/cpu/armv8/start.o
 .rela.u_boot_list_2_env_clbk_2_nvlan
                0x000000008803d9c0       0x30 arch/arm/cpu/armv8/start.o
 .rela.u_boot_list_2_env_clbk_2_gatewayip
                0x000000008803d9f0       0x30 arch/arm/cpu/armv8/start.o
 .rela.u_boot_list_2_cmd_2_dm
                0x000000008803da20       0x60 arch/arm/cpu/armv8/start.o
 .rela.data.test_commands
                0x000000008803da80      0x120 arch/arm/cpu/armv8/start.o

.rel_dyn_end    0x000000008803dba0        0x0
 *(.__rel_dyn_end)
 .__rel_dyn_end
                0x000000008803dba0        0x0 arch/arm/lib/built-in.o
                0x000000008803dba0                _end = .
                0x000000008803dba0                . = ALIGN (0x8)

.bss_start      0x000000008803dba0        0x0
 *(.__bss_start)
 .__bss_start   0x000000008803dba0        0x0 arch/arm/lib/built-in.o
                0x000000008803dba0                __bss_start

.bss            0x000000008803dbc0    0x37d08
 *(.bss*)
 .bss.images    0x000000008803dbc0      0x218 cmd/built-in.o
                0x000000008803dbc0                images
 .bss.afs_images
                0x000000008803ddd8      0xc00 cmd/built-in.o
 .bss.num_afs_images
                0x000000008803e9d8        0x4 cmd/built-in.o
 *fill*         0x000000008803e9dc        0x4 
 .bss.data.5981
                0x000000008803e9e0      0x400 cmd/built-in.o
 .bss.working_fdt
                0x000000008803ede0        0x8 cmd/built-in.o
                0x000000008803ede0                working_fdt
 .bss.send_parms
                0x000000008803ede8       0x18 cmd/built-in.o
 .bss.os_data_addr_saved
                0x000000008803ee00        0x8 cmd/built-in.o
 .bss.his_pad_char
                0x000000008803ee08        0x1 cmd/built-in.o
 *fill*         0x000000008803ee09        0x7 
 .bss.a_b       0x000000008803ee10       0x18 cmd/built-in.o
 .bss.os_data_char
                0x000000008803ee28        0x8 cmd/built-in.o
 .bss.os_data_state
                0x000000008803ee30        0x4 cmd/built-in.o
 .bss.k_data_escape
                0x000000008803ee34        0x4 cmd/built-in.o
 .bss.os_data_state_saved
                0x000000008803ee38        0x4 cmd/built-in.o
 *fill*         0x000000008803ee3c        0x4 
 .bss.os_data_addr
                0x000000008803ee40        0x8 cmd/built-in.o
 .bss.send_ptr  0x000000008803ee48        0x8 cmd/built-in.o
 .bss.his_pad_count
                0x000000008803ee50        0x4 cmd/built-in.o
 *fill*         0x000000008803ee54        0x4 
 .bss.bin_start_address
                0x000000008803ee58        0x8 cmd/built-in.o
 .bss.his_quote
                0x000000008803ee60        0x1 cmd/built-in.o
 *fill*         0x000000008803ee61        0x7 
 .bss.os_data_init
                0x000000008803ee68        0x8 cmd/built-in.o
 .bss.his_eol   0x000000008803ee70        0x1 cmd/built-in.o
 *fill*         0x000000008803ee71        0x3 
 .bss.k_data_escape_saved
                0x000000008803ee74        0x4 cmd/built-in.o
 .bss.dp_last_addr
                0x000000008803ee78        0x8 cmd/built-in.o
 .bss.base_address
                0x000000008803ee80        0x8 cmd/built-in.o
 .bss.mm_last_size
                0x000000008803ee88        0x8 cmd/built-in.o
 .bss.mm_last_addr
                0x000000008803ee90        0x8 cmd/built-in.o
 .bss.dp_last_size
                0x000000008803ee98        0x8 cmd/built-in.o
 .bss.last_data
                0x000000008803eea0        0x4 cmd/built-in.o
 .bss.last_reg_hi
                0x000000008803eea4        0x4 cmd/built-in.o
 .bss.last_mask
                0x000000008803eea8        0x4 cmd/built-in.o
 .bss.last_addr_lo
                0x000000008803eeac        0x4 cmd/built-in.o
 .bss.last_op   0x000000008803eeb0        0x8 cmd/built-in.o
 .bss.last_addr_hi
                0x000000008803eeb8        0x4 cmd/built-in.o
 .bss.last_reg_lo
                0x000000008803eebc        0x4 cmd/built-in.o
 .bss.do_getfile
                0x000000008803eec0        0x8 cmd/built-in.o
 .bss.is_pxe    0x000000008803eec8        0x1 cmd/built-in.o
 *fill*         0x000000008803eec9        0x7 
 .bss.fs_argv   0x000000008803eed0       0x28 cmd/built-in.o
 .bss.flag_repeat
                0x000000008803eef8        0x4 common/built-in.o
 .bss.last_return_code
                0x000000008803eefc        0x4 common/built-in.o
 .bss.buf.5589  0x000000008803ef00       0x28 common/built-in.o
 .bss.ifs       0x000000008803ef28        0x8 common/built-in.o
 .bss.the_command.5389
                0x000000008803ef30      0x208 common/built-in.o
 .bss.map       0x000000008803f138      0x100 common/built-in.o
 .bss.do_repeat
                0x000000008803f238        0x4 common/built-in.o
 *fill*         0x000000008803f23c        0x4 
 .bss.top_vars  0x000000008803f240        0x8 common/built-in.o
 .bss.stored_bootdelay
                0x000000008803f248        0x4 common/built-in.o
 *fill*         0x000000008803f24c        0x4 
 .bss.monitor_flash_len
                0x000000008803f250        0x8 common/built-in.o
                0x000000008803f250                monitor_flash_len
 .bss.callback_list
                0x000000008803f258        0x8 common/built-in.o
 .bss.flags_list
                0x000000008803f260        0x8 common/built-in.o
 .bss.current_mii
                0x000000008803f268        0x8 common/built-in.o
 .bss.mii_devs  0x000000008803f270       0x10 common/built-in.o
 .bss.ctrlc_was_pressed
                0x000000008803f280        0x4 common/built-in.o
 .bss.ctrlc_disabled
                0x000000008803f284        0x4 common/built-in.o
 .bss.max_total_mem
                0x000000008803f288        0x8 common/built-in.o
 .bss.mem_malloc_brk
                0x000000008803f290        0x8 common/built-in.o
                0x000000008803f290                mem_malloc_brk
 .bss.max_sbrked_mem
                0x000000008803f298        0x8 common/built-in.o
 .bss.current_mallinfo
                0x000000008803f2a0       0x28 common/built-in.o
 .bss.mem_malloc_end
                0x000000008803f2c8        0x8 common/built-in.o
                0x000000008803f2c8                mem_malloc_end
 .bss.top_pad   0x000000008803f2d0        0x8 common/built-in.o
 .bss.mem_malloc_start
                0x000000008803f2d8        0x8 common/built-in.o
                0x000000008803f2d8                mem_malloc_start
 .bss.devs      0x000000008803f2e0       0x70 common/built-in.o
 .bss.stdio_devices
                0x000000008803f350       0x18 common/built-in.o
                0x000000008803f350                stdio_devices
 .bss.hist_list
                0x000000008803f368       0xa0 common/built-in.o
 .bss.hist_lines
                0x000000008803f408     0x2818 common/built-in.o
 .bss.initted.5234
                0x0000000088041c20        0x4 common/built-in.o
 .bss.hist_max  0x0000000088041c24        0x4 common/built-in.o
 .bss.hist_add_idx
                0x0000000088041c28        0x4 common/built-in.o
 .bss.hist_num  0x0000000088041c2c        0x4 common/built-in.o
 .bss.console_buffer
                0x0000000088041c30      0x208 common/built-in.o
                0x0000000088041c30                console_buffer
 .bss.xyz       0x0000000088041e38      0x448 common/built-in.o
 .bss.saved_sector.7719
                0x0000000088042280        0x8 drivers/mtd/built-in.o
 .bss.saved_info.7720
                0x0000000088042288        0x8 drivers/mtd/built-in.o
 .bss.flash_info
                0x0000000088042290      0x968 drivers/mtd/built-in.o
                0x0000000088042290                flash_info
 .bss.fs_partition
                0x0000000088042bf8       0x60 fs/built-in.o
 .bss.fs_type   0x0000000088042c58        0x4 fs/built-in.o
 *fill*         0x0000000088042c5c        0x4 
 .bss.fs_dev_desc
                0x0000000088042c60        0x8 fs/built-in.o
 *fill*         0x0000000088042c68       0x18 
 .bss.do_fat_read_at_block
                0x0000000088042c80    0x10000 fs/built-in.o
                0x0000000088042c80                do_fat_read_at_block
 .bss.get_dentfromdir_block
                0x0000000088052c80    0x10000 fs/built-in.o
                0x0000000088052c80                get_dentfromdir_block
 .bss.cur_part_info
                0x0000000088062c80       0x60 fs/built-in.o
 *fill*         0x0000000088062ce0       0x20 
 .bss.get_contents_vfatname_block
                0x0000000088062d00    0x10000 fs/built-in.o
                0x0000000088062d00                get_contents_vfatname_block
 .bss.cur_dev   0x0000000088072d00        0x8 fs/built-in.o
 .bss.app_gd    0x0000000088072d08        0x8 lib/built-in.o
 .bss.efi_gd    0x0000000088072d10        0x8 lib/built-in.o
 .bss.mono.6213
                0x0000000088072d18        0x8 lib/built-in.o
 .bss.console_size_queried
                0x0000000088072d20        0x1 lib/built-in.o
 .bss.new_rx_packet
                0x0000000088072d21        0x1 lib/built-in.o
 *fill*         0x0000000088072d22        0x6 
 .bss.dhcp_ack  0x0000000088072d28        0x8 lib/built-in.o
 .bss.new_tx_packet
                0x0000000088072d30        0x8 lib/built-in.o
 .bss.errno     0x0000000088072d38        0x4 lib/built-in.o
                0x0000000088072d38                errno
 *fill*         0x0000000088072d3c        0x4 
 .bss.local.5327
                0x0000000088072d40       0x18 lib/built-in.o
 .bss.arp_tx_packet_buf
                0x0000000088072d58      0x640 net/built-in.o
 .bss.arp_wait_packet_ethaddr
                0x0000000088073398        0x8 net/built-in.o
                0x0000000088073398                arp_wait_packet_ethaddr
 .bss.arp_tx_packet
                0x00000000880733a0        0x8 net/built-in.o
 .bss.arp_wait_tx_packet_size
                0x00000000880733a8        0x4 net/built-in.o
                0x00000000880733a8                arp_wait_tx_packet_size
 .bss.arp_wait_try
                0x00000000880733ac        0x4 net/built-in.o
                0x00000000880733ac                arp_wait_try
 .bss.net_arp_wait_reply_ip
                0x00000000880733b0        0x8 net/built-in.o
 .bss.net_arp_wait_packet_ip
                0x00000000880733b8        0x8 net/built-in.o
                0x00000000880733b8                net_arp_wait_packet_ip
 .bss.arp_wait_timer_start
                0x00000000880733c0        0x8 net/built-in.o
                0x00000000880733c0                arp_wait_timer_start
 .bss.dhcp_state
                0x00000000880733c8        0x4 net/built-in.o
 *fill*         0x00000000880733cc        0x4 
 .bss.net_hostname
                0x00000000880733d0       0x20 net/built-in.o
                0x00000000880733d0                net_hostname
 .bss.bootp_timeout
                0x00000000880733f0        0x8 net/built-in.o
                0x00000000880733f0                bootp_timeout
 .bss.dhcp_server_ip
                0x00000000880733f8        0x8 net/built-in.o
 .bss.dhcp_option_overload
                0x0000000088073400        0x1 net/built-in.o
 *fill*         0x0000000088073401        0x7 
 .bss.time_taken_max
                0x0000000088073408        0x8 net/built-in.o
 .bss.net_root_path
                0x0000000088073410       0x40 net/built-in.o
                0x0000000088073410                net_root_path
 .bss.bootp_ids
                0x0000000088073450       0x10 net/built-in.o
                0x0000000088073450                bootp_ids
 .bss.bootp_num_ids
                0x0000000088073460        0x4 net/built-in.o
                0x0000000088073460                bootp_num_ids
 .bss.bootp_try
                0x0000000088073464        0x4 net/built-in.o
                0x0000000088073464                bootp_try
 .bss.bootp_start
                0x0000000088073468        0x8 net/built-in.o
                0x0000000088073468                bootp_start
 .bss.dhcp_leasetime
                0x0000000088073470        0x4 net/built-in.o
 *fill*         0x0000000088073474        0x4 
 .bss.net_nis_domain
                0x0000000088073478       0x20 net/built-in.o
                0x0000000088073478                net_nis_domain
 .bss.index.5673
                0x0000000088073498        0x4 net/built-in.o
 *fill*         0x000000008807349c        0x4 
 .bss.eth_current
                0x00000000880734a0        0x8 net/built-in.o
                0x00000000880734a0                eth_current
 .bss.eth_devices
                0x00000000880734a8        0x8 net/built-in.o
 .bss.env_changed_id.7275
                0x00000000880734b0        0x4 net/built-in.o
 *fill*         0x00000000880734b4        0x4 
 .bss.act.7274  0x00000000880734b8        0x8 net/built-in.o
 .bss.first_failed.7269
                0x00000000880734c0        0x8 net/built-in.o
 .bss.net_ethaddr
                0x00000000880734c8        0x8 net/built-in.o
                0x00000000880734c8                net_ethaddr
 .bss.net_dns_server
                0x00000000880734d0        0x8 net/built-in.o
                0x00000000880734d0                net_dns_server
 .bss.net_state
                0x00000000880734d8        0x4 net/built-in.o
                0x00000000880734d8                net_state
 *fill*         0x00000000880734dc        0x4 
 .bss.net_server_ip
                0x00000000880734e0        0x8 net/built-in.o
                0x00000000880734e0                net_server_ip
 .bss.net_rx_packet
                0x00000000880734e8        0x8 net/built-in.o
                0x00000000880734e8                net_rx_packet
 .bss.net_boot_file_expected_size_in_blocks
                0x00000000880734f0        0x4 net/built-in.o
                0x00000000880734f0                net_boot_file_expected_size_in_blocks
 *fill*         0x00000000880734f4        0x4 
 .bss.net_rx_packets
                0x00000000880734f8       0x20 net/built-in.o
                0x00000000880734f8                net_rx_packets
 .bss.time_start
                0x0000000088073518       0x10 net/built-in.o
 .bss.net_gateway
                0x0000000088073528        0x8 net/built-in.o
                0x0000000088073528                net_gateway
 .bss.net_boot_file_name
                0x0000000088073530      0x400 net/built-in.o
                0x0000000088073530                net_boot_file_name
 .bss.udp_packet_handler
                0x0000000088073930        0x8 net/built-in.o
 .bss.net_dev_exists
                0x0000000088073938        0x4 net/built-in.o
 .bss.net_try_count
                0x000000008807393c        0x4 net/built-in.o
 .bss.net_server_ethaddr
                0x0000000088073940        0x8 net/built-in.o
                0x0000000088073940                net_server_ethaddr
 .bss.net_null_ethaddr
                0x0000000088073948        0x8 net/built-in.o
                0x0000000088073948                net_null_ethaddr
 .bss.net_ip_id
                0x0000000088073950        0x4 net/built-in.o
 .bss.net_restart_wrap
                0x0000000088073954        0x4 net/built-in.o
                0x0000000088073954                net_restart_wrap
 .bss.net_restarted
                0x0000000088073958        0x4 net/built-in.o
 *fill*         0x000000008807395c        0x4 
 .bss.time_delta
                0x0000000088073960        0x8 net/built-in.o
 .bss.arp_packet_handler
                0x0000000088073968        0x8 net/built-in.o
 .bss.net_netmask
                0x0000000088073970        0x8 net/built-in.o
                0x0000000088073970                net_netmask
 .bss.net_pkt_buf
                0x0000000088073978     0x1e40 net/built-in.o
 .bss.net_ip    0x00000000880757b8        0x8 net/built-in.o
                0x00000000880757b8                net_ip
 .bss.net_rx_packet_len
                0x00000000880757c0        0x4 net/built-in.o
                0x00000000880757c0                net_rx_packet_len
 *fill*         0x00000000880757c4        0x4 
 .bss.net_tx_packet
                0x00000000880757c8        0x8 net/built-in.o
                0x00000000880757c8                net_tx_packet
 .bss.time_handler
                0x00000000880757d0        0x8 net/built-in.o
 .bss.push_packet
                0x00000000880757d8        0x8 net/built-in.o
                0x00000000880757d8                push_packet
 .bss.net_boot_file_size
                0x00000000880757e0        0x4 net/built-in.o
                0x00000000880757e0                net_boot_file_size
 *fill*         0x00000000880757e4        0x4 
 .bss.net_ping_ip
                0x00000000880757e8        0x8 net/built-in.o
                0x00000000880757e8                net_ping_ip
 .bss.ping_seq_number
                0x00000000880757f0        0x2 net/built-in.o
 *fill*         0x00000000880757f2        0x6 
 .bss.tftp_prev_block
                0x00000000880757f8        0x8 net/built-in.o
 .bss.timeout_count
                0x0000000088075800        0x4 net/built-in.o
 *fill*         0x0000000088075804        0x4 
 .bss.tftp_block_wrap
                0x0000000088075808        0x8 net/built-in.o
 .bss.default_filename
                0x0000000088075810       0x10 net/built-in.o
 .bss.tftp_remote_port
                0x0000000088075820        0x4 net/built-in.o
 *fill*         0x0000000088075824        0x4 
 .bss.tftp_cur_block
                0x0000000088075828        0x8 net/built-in.o
 .bss.tftp_remote_ip
                0x0000000088075830        0x8 net/built-in.o
 .bss.tftp_state
                0x0000000088075838        0x4 net/built-in.o
 .bss.tftp_our_port
                0x000000008807583c        0x4 net/built-in.o
 .bss.tftp_filename
                0x0000000088075840       0x80 net/built-in.o
 .bss.tftp_block_wrap_offset
                0x00000000880758c0        0x8 net/built-in.o
                0x00000000880758c8                . = ALIGN (0x8)

.dynbss         0x00000000880758c8        0x0
 .dynbss        0x0000000000000000        0x0 arch/arm/cpu/armv8/start.o

.bss_end        0x00000000880758c8        0x0
 *(.__bss_end)
 .__bss_end     0x00000000880758c8        0x0 arch/arm/lib/built-in.o
                0x00000000880758c8                __bss_end

/DISCARD/
 *(.dynsym)
 *(.dynstr*)
 *(.dynamic*)
 *(.plt*)
 *(.interp*)
 *(.gnu*)
LOAD arch/arm/cpu/armv8/start.o
START GROUP
LOAD arch/arm/cpu/built-in.o
LOAD arch/arm/cpu/armv8/built-in.o
LOAD arch/arm/lib/built-in.o
LOAD board/armltd/vexpress64/built-in.o
LOAD cmd/built-in.o
LOAD common/built-in.o
LOAD disk/built-in.o
LOAD drivers/built-in.o
LOAD drivers/dma/built-in.o
LOAD drivers/gpio/built-in.o
LOAD drivers/i2c/built-in.o
LOAD drivers/mmc/built-in.o
LOAD drivers/mtd/built-in.o
LOAD drivers/mtd/onenand/built-in.o
LOAD drivers/mtd/spi/built-in.o
LOAD drivers/net/built-in.o
LOAD drivers/net/phy/built-in.o
LOAD drivers/pci/built-in.o
LOAD drivers/power/built-in.o
LOAD drivers/power/battery/built-in.o
LOAD drivers/power/fuel_gauge/built-in.o
LOAD drivers/power/mfd/built-in.o
LOAD drivers/power/pmic/built-in.o
LOAD drivers/power/regulator/built-in.o
LOAD drivers/serial/built-in.o
LOAD drivers/spi/built-in.o
LOAD drivers/usb/common/built-in.o
LOAD drivers/usb/dwc3/built-in.o
LOAD drivers/usb/emul/built-in.o
LOAD drivers/usb/eth/built-in.o
LOAD drivers/usb/gadget/built-in.o
LOAD drivers/usb/gadget/udc/built-in.o
LOAD drivers/usb/host/built-in.o
LOAD drivers/usb/musb-new/built-in.o
LOAD drivers/usb/musb/built-in.o
LOAD drivers/usb/phy/built-in.o
LOAD drivers/usb/ulpi/built-in.o
LOAD fs/built-in.o
LOAD lib/built-in.o
LOAD net/built-in.o
LOAD test/built-in.o
LOAD test/dm/built-in.o
END GROUP
LOAD /home/davidnguyen/opt/toolchain/gcc-linaro-4.9-2014.11-x86_64_aarch64-linux-gnu/bin/../lib/gcc/aarch64-linux-gnu/4.9.3/libgcc.a
OUTPUT(u-boot elf64-littleaarch64)

.debug_line     0x0000000000000000    0x189cf
 .debug_line    0x0000000000000000       0x81 arch/arm/cpu/armv8/start.o
 .debug_line    0x0000000000000081      0xab2 arch/arm/cpu/armv8/built-in.o
 .debug_line    0x0000000000000b33      0xa14 arch/arm/lib/built-in.o
 .debug_line    0x0000000000001547      0x211 board/armltd/vexpress64/built-in.o
 .debug_line    0x0000000000001758     0x3ab3 cmd/built-in.o
 .debug_line    0x000000000000520b     0x67a8 common/built-in.o
 .debug_line    0x000000000000b9b3      0x2c2 disk/built-in.o
 .debug_line    0x000000000000bc75     0x1cd2 drivers/built-in.o
 .debug_line    0x000000000000d947      0xbeb drivers/mtd/built-in.o
 .debug_line    0x000000000000e532      0x3f6 drivers/net/built-in.o
 .debug_line    0x000000000000e928      0x5e0 drivers/serial/built-in.o
 .debug_line    0x000000000000ef08      0xdbf fs/built-in.o
 .debug_line    0x000000000000fcc7     0x713d lib/built-in.o
 .debug_line    0x0000000000016e04     0x1aa4 net/built-in.o
 .debug_line    0x00000000000188a8      0x127 test/dm/built-in.o

.debug_info     0x0000000000000000    0x9530b
 .debug_info    0x0000000000000000       0x8d arch/arm/cpu/armv8/start.o
 .debug_info    0x000000000000008d     0x2b91 arch/arm/cpu/armv8/built-in.o
 .debug_info    0x0000000000002c1e     0x3a04 arch/arm/lib/built-in.o
 .debug_info    0x0000000000006622      0x9a0 board/armltd/vexpress64/built-in.o
 .debug_info    0x0000000000006fc2    0x1b3bf cmd/built-in.o
 .debug_info    0x0000000000022381    0x2788f common/built-in.o
 .debug_info    0x0000000000049c10     0x11b8 disk/built-in.o
 .debug_info    0x000000000004adc8     0xb5f5 drivers/built-in.o
 .debug_info    0x00000000000563bd     0x5791 drivers/mtd/built-in.o
 .debug_info    0x000000000005bb4e     0x1275 drivers/net/built-in.o
 .debug_info    0x000000000005cdc3     0x2bc7 drivers/serial/built-in.o
 .debug_info    0x000000000005f98a     0x507c fs/built-in.o
 .debug_info    0x0000000000064a06    0x2568f lib/built-in.o
 .debug_info    0x000000000008a095     0xabee net/built-in.o
 .debug_info    0x0000000000094c83      0x688 test/dm/built-in.o

.debug_abbrev   0x0000000000000000    0x19069
 .debug_abbrev  0x0000000000000000       0x14 arch/arm/cpu/armv8/start.o
 .debug_abbrev  0x0000000000000014      0x90e arch/arm/cpu/armv8/built-in.o
 .debug_abbrev  0x0000000000000922      0xcff arch/arm/lib/built-in.o
 .debug_abbrev  0x0000000000001621      0x2b2 board/armltd/vexpress64/built-in.o
 .debug_abbrev  0x00000000000018d3     0x455a cmd/built-in.o
 .debug_abbrev  0x0000000000005e2d     0x6856 common/built-in.o
 .debug_abbrev  0x000000000000c683      0x3c9 disk/built-in.o
 .debug_abbrev  0x000000000000ca4c     0x1e95 drivers/built-in.o
 .debug_abbrev  0x000000000000e8e1      0x5c1 drivers/mtd/built-in.o
 .debug_abbrev  0x000000000000eea2      0x371 drivers/net/built-in.o
 .debug_abbrev  0x000000000000f213      0x708 drivers/serial/built-in.o
 .debug_abbrev  0x000000000000f91b      0xb22 fs/built-in.o
 .debug_abbrev  0x000000000001043d     0x6cbe lib/built-in.o
 .debug_abbrev  0x00000000000170fb     0x1d88 net/built-in.o
 .debug_abbrev  0x0000000000018e83      0x1e6 test/dm/built-in.o

.debug_aranges  0x0000000000000000     0x5f80
 .debug_aranges
                0x0000000000000000       0x30 arch/arm/cpu/armv8/start.o
 .debug_aranges
                0x0000000000000030      0x300 arch/arm/cpu/armv8/built-in.o
 .debug_aranges
                0x0000000000000330      0x370 arch/arm/lib/built-in.o
 .debug_aranges
                0x00000000000006a0       0x90 board/armltd/vexpress64/built-in.o
 .debug_aranges
                0x0000000000000730      0xb20 cmd/built-in.o
 .debug_aranges
                0x0000000000001250     0x1a60 common/built-in.o
 .debug_aranges
                0x0000000000002cb0       0x90 disk/built-in.o
 .debug_aranges
                0x0000000000002d40      0x7e0 drivers/built-in.o
 .debug_aranges
                0x0000000000003520      0x1b0 drivers/mtd/built-in.o
 .debug_aranges
                0x00000000000036d0       0xa0 drivers/net/built-in.o
 .debug_aranges
                0x0000000000003770      0x1b0 drivers/serial/built-in.o
 .debug_aranges
                0x0000000000003920      0x390 fs/built-in.o
 .debug_aranges
                0x0000000000003cb0     0x1c50 lib/built-in.o
 .debug_aranges
                0x0000000000005900      0x620 net/built-in.o
 .debug_aranges
                0x0000000000005f20       0x60 test/dm/built-in.o

.comment        0x0000000000000000       0x36
 .comment       0x0000000000000000       0x36 arch/arm/cpu/armv8/built-in.o
                                         0xdc (size before relaxing)
 .comment       0x0000000000000000      0x181 arch/arm/lib/built-in.o
 .comment       0x0000000000000000       0x37 board/armltd/vexpress64/built-in.o
 .comment       0x0000000000000000      0x55f cmd/built-in.o
 .comment       0x0000000000000000      0x717 common/built-in.o
 .comment       0x0000000000000000       0x6e disk/built-in.o
 .comment       0x0000000000000000      0x294 drivers/built-in.o
 .comment       0x0000000000000000       0x37 drivers/mtd/built-in.o
 .comment       0x0000000000000000       0x37 drivers/net/built-in.o
 .comment       0x0000000000000000       0x6e drivers/serial/built-in.o
 .comment       0x0000000000000000       0xa5 fs/built-in.o
 .comment       0x0000000000000000      0x9e2 lib/built-in.o
 .comment       0x0000000000000000      0x1b8 net/built-in.o
 .comment       0x0000000000000000       0x37 test/dm/built-in.o

.note.GNU-stack
                0x0000000000000000        0x0
 .note.GNU-stack
                0x0000000000000000        0x0 arch/arm/cpu/armv8/built-in.o
 .note.GNU-stack
                0x0000000000000000        0x0 arch/arm/lib/built-in.o
 .note.GNU-stack
                0x0000000000000000        0x0 board/armltd/vexpress64/built-in.o
 .note.GNU-stack
                0x0000000000000000        0x0 cmd/built-in.o
 .note.GNU-stack
                0x0000000000000000        0x0 common/built-in.o
 .note.GNU-stack
                0x0000000000000000        0x0 disk/built-in.o
 .note.GNU-stack
                0x0000000000000000        0x0 drivers/built-in.o
 .note.GNU-stack
                0x0000000000000000        0x0 drivers/mtd/built-in.o
 .note.GNU-stack
                0x0000000000000000        0x0 drivers/net/built-in.o
 .note.GNU-stack
                0x0000000000000000        0x0 drivers/serial/built-in.o
 .note.GNU-stack
                0x0000000000000000        0x0 fs/built-in.o
 .note.GNU-stack
                0x0000000000000000        0x0 lib/built-in.o
 .note.GNU-stack
                0x0000000000000000        0x0 net/built-in.o
 .note.GNU-stack
                0x0000000000000000        0x0 test/dm/built-in.o

.debug_frame    0x0000000000000000     0xda18
 .debug_frame   0x0000000000000000      0x480 arch/arm/cpu/armv8/built-in.o
 .debug_frame   0x0000000000000480      0x448 arch/arm/lib/built-in.o
 .debug_frame   0x00000000000008c8       0xe8 board/armltd/vexpress64/built-in.o
 .debug_frame   0x00000000000009b0     0x1b28 cmd/built-in.o
 .debug_frame   0x00000000000024d8     0x3dd0 common/built-in.o
 .debug_frame   0x00000000000062a8       0xe0 disk/built-in.o
 .debug_frame   0x0000000000006388     0x1140 drivers/built-in.o
 .debug_frame   0x00000000000074c8      0x530 drivers/mtd/built-in.o
 .debug_frame   0x00000000000079f8      0x1c0 drivers/net/built-in.o
 .debug_frame   0x0000000000007bb8      0x368 drivers/serial/built-in.o
 .debug_frame   0x0000000000007f20      0x940 fs/built-in.o
 .debug_frame   0x0000000000008860     0x4220 lib/built-in.o
 .debug_frame   0x000000000000ca80      0xed8 net/built-in.o
 .debug_frame   0x000000000000d958       0xc0 test/dm/built-in.o

.debug_str      0x0000000000000000     0xe359
 .debug_str     0x0000000000000000      0x951 arch/arm/cpu/armv8/built-in.o
                                       0x1684 (size before relaxing)
 .debug_str     0x0000000000000951     0x10cb arch/arm/lib/built-in.o
                                       0x2fcf (size before relaxing)
 .debug_str     0x0000000000001a1c      0x12a board/armltd/vexpress64/built-in.o
                                        0x707 (size before relaxing)
 .debug_str     0x0000000000001b46     0x2e1d cmd/built-in.o
                                       0xc97a (size before relaxing)
 .debug_str     0x0000000000004963     0x3604 common/built-in.o
                                      0x15bf4 (size before relaxing)
 .debug_str     0x0000000000007f67       0x90 disk/built-in.o
                                        0xbda (size before relaxing)
 .debug_str     0x0000000000007ff7      0xe05 drivers/built-in.o
                                       0x7311 (size before relaxing)
 .debug_str     0x0000000000008dfc      0x670 drivers/mtd/built-in.o
                                       0x14f5 (size before relaxing)
 .debug_str     0x000000000000946c      0x1f9 drivers/net/built-in.o
                                        0x660 (size before relaxing)
 .debug_str     0x0000000000009665      0x2dd drivers/serial/built-in.o
                                       0x1c69 (size before relaxing)
 .debug_str     0x0000000000009942      0x7af fs/built-in.o
                                       0x1bb5 (size before relaxing)
 .debug_str     0x000000000000a0f1     0x31b6 lib/built-in.o
                                      0x12ff5 (size before relaxing)
 .debug_str     0x000000000000d2a7     0x1039 net/built-in.o
                                       0x6cbe (size before relaxing)
 .debug_str     0x000000000000e2e0       0x79 test/dm/built-in.o
                                        0x504 (size before relaxing)

.debug_loc      0x0000000000000000    0x75ebe
 .debug_loc     0x0000000000000000     0x1b20 arch/arm/cpu/armv8/built-in.o
 .debug_loc     0x0000000000001b20      0xc58 arch/arm/lib/built-in.o
 .debug_loc     0x0000000000002778      0x240 board/armltd/vexpress64/built-in.o
 .debug_loc     0x00000000000029b8    0x12931 cmd/built-in.o
 .debug_loc     0x00000000000152e9    0x1d5d6 common/built-in.o
 .debug_loc     0x00000000000328bf      0x867 disk/built-in.o
 .debug_loc     0x0000000000033126     0x81cb drivers/built-in.o
 .debug_loc     0x000000000003b2f1     0x58c4 drivers/mtd/built-in.o
 .debug_loc     0x0000000000040bb5     0x15c5 drivers/net/built-in.o
 .debug_loc     0x000000000004217a     0x124f drivers/serial/built-in.o
 .debug_loc     0x00000000000433c9     0x5d0d fs/built-in.o
 .debug_loc     0x00000000000490d6    0x2657d lib/built-in.o
 .debug_loc     0x000000000006f653     0x6454 net/built-in.o
 .debug_loc     0x0000000000075aa7      0x417 test/dm/built-in.o

.debug_ranges   0x0000000000000000     0xbd40
 .debug_ranges  0x0000000000000000      0x3b0 arch/arm/cpu/armv8/built-in.o
 .debug_ranges  0x00000000000003b0      0x230 arch/arm/lib/built-in.o
 .debug_ranges  0x00000000000005e0       0xb0 board/armltd/vexpress64/built-in.o
 .debug_ranges  0x0000000000000690     0x1b00 cmd/built-in.o
 .debug_ranges  0x0000000000002190     0x2bb0 common/built-in.o
 .debug_ranges  0x0000000000004d40       0x60 disk/built-in.o
 .debug_ranges  0x0000000000004da0      0xf80 drivers/built-in.o
 .debug_ranges  0x0000000000005d20      0xde0 drivers/mtd/built-in.o
 .debug_ranges  0x0000000000006b00      0x230 drivers/net/built-in.o
 .debug_ranges  0x0000000000006d30      0x2a0 drivers/serial/built-in.o
 .debug_ranges  0x0000000000006fd0      0x830 fs/built-in.o
 .debug_ranges  0x0000000000007800     0x3740 lib/built-in.o
 .debug_ranges  0x000000000000af40      0xdb0 net/built-in.o
 .debug_ranges  0x000000000000bcf0       0x50 test/dm/built-in.o
